(lp0
(VC
p1
(lp2
F0.8427707394162474
aF0.7824247863817775
aF0.5543754825612581
aF0.11274422294308478
aF0.39276310095276423
aF0.05391740233482673
aF0.2671963601985393
aF9.834437843755955e-05
atp3
a(g1
(lp4
F2.097991865586725
aF2.068092611868499
aF1.9477207694129002
aF1.6074123159690676
aF1.7932055275674803
aF0.026280679400765648
aF1.7169783385280866
aF2.38395081149041e-07
atp5
a(g1
(lp6
F2.099340877017734
aF2.0679752911246427
aF1.9409083810766437
aF1.576215694301479
aF1.8145762095966762
aF0.012024788849801224
aF1.7819095610274203
aF2.37733734428492e-06
atp7
a(g1
(lp8
F2.1291679139801465
aF2.095095477787847
aF1.9550615747718274
aF1.5391133817456033
aF1.809668758520817
aF0.03826415803495694
aF1.7116699445384551
aF2.9862022128720778e-05
atp9
a(g1
(lp10
F0.0
aF0.0
aF0.0
aF0.0
aF0.0
aF0.0
aF0.0
aF0.0
atp11
a.