(lp0
(VC
p1
(lp2
F3.550566777216248
aF3.520936487801335
aF3.3869440588302697
aF2.8346756287145505
aF8.096420882528207
aF0.15483933353633628
aF7.672525582078581
aF1.925447362417224e-05
atp3
a(g1
(lp4
F3.4813665176784325
aF3.4480704232948978
aF3.2985082626805093
aF2.6993327122624278
aF7.911076574355256
aF0.12326989252910915
aF7.563564087894805
aF6.082845541616067e-06
atp5
a(g1
(lp6
F3.5538433401633167
aF3.5243205153398955
aF3.390689267667133
aF2.8377428360377035
aF7.923979417702178
aF0.3211058274216249
aF7.206866035187929
aF0.0014896471215065773
atp7
a(g1
(lp8
F3.538591373636832
aF3.5081740725942896
aF3.3706378478683567
aF2.804241082746166
aF8.00025233208975
aF0.2042249333755352
aF7.459341410353417
aF7.112690650331849e-05
atp9
a(g1
(lp10
F3.377325860161497
aF3.3378433944754344
aF3.161140501728436
aF2.4656917654587756
aF7.542699414606602
aF0.16318823130744178
aF7.080342758454503
aF6.037306000686637e-06
atp11
a.