(lp0
(VC
p1
(lp2
F0.7129057097499083
aF0.6571731447955111
aF0.4506596327340139
aF0.07922333494360392
aF0.2793867795254425
aF0.04293320676000899
aF0.18206964658161734
aF0.00010422297684278038
atp3
a(g1
(lp4
F2.0492186062780244
aF2.0227900299970445
aF1.9179323454213404
aF1.6264676970989729
aF1.7683698374657544
aF0.01124146059253888
aF1.7351218676027864
aF5.642835655476612e-09
atp5
a(g1
(lp6
F2.0773256420606128
aF2.0475044675323435
aF1.9275537346767075
aF1.5868896779073878
aF1.789576824173005
aF0.013355587232144391
aF1.7550326062132948
aF1.0137617575024338e-05
atp7
a(g1
(lp8
F2.1324935529102436
aF2.101960959397337
aF1.9784228112496467
aF1.6275864937381765
aF1.787976851155781
aF0.03215909426455176
aF1.7166160227708924
aF0.0001375406237735909
atp9
a(g1
(lp10
F0.0
aF0.0
aF0.0
aF0.0
aF0.0
aF0.0
aF0.0
aF0.0
atp11
a.