(lp0
(VC
p1
(lp2
F3.4707367549361505
aF3.4366127351108404
aF3.2832019739421154
aF2.6669802956628264
aF7.594975084530533
aF0.13705882094500813
aF7.221430234549667
aF2.5624950546433337e-05
atp3
a(g1
(lp4
F3.437680796172424
aF3.4018877358493884
aF3.2414728475179437
aF2.6052673372601283
aF7.49545079113399
aF0.13693722403231598
aF7.1195185379634776
aF2.3720571443385002e-05
atp5
a(g1
(lp6
F3.4642327306881233
aF3.42948832287579
aF3.2730770128919175
aF2.641495467511914
aF7.448208056298547
aF0.24684082629266074
aF6.83475089170818
aF0.00033309211342596675
atp7
a(g1
(lp8
F3.4796590175135353
aF3.4459069335700088
aF3.293946111304552
aF2.6799093628749304
aF7.521569230795563
aF0.221759167557366
aF6.939512386925415
aF8.321208982141126e-05
atp9
a(g1
(lp10
F3.2793606702357225
aF3.2345107216609126
aF3.0347899310303617
aF2.2664342676719444
aF6.996883374055976
aF0.1563576457191815
aF6.553978019338604
aF4.969847745718384e-06
atp11
a.