(lp0
(VC
p1
(lp2
F3.52307395527106
aF3.4918631911472615
aF3.3510013131123966
aF2.7754461839973654
aF7.920663326208736
aF0.14787954935141545
aF7.515768204427171
aF2.039337142755986e-05
atp3
a(g1
(lp4
F3.464683073964485
aF3.4304295417094557
aF3.2767010917228907
aF2.6632225949432042
aF7.76231930577221
aF0.12571678873659317
aF7.410172422129672
aF9.588601491548172e-06
atp5
a(g1
(lp6
F3.522928405668346
aF3.491575540121027
aF3.3499246772435596
aF2.768673898958461
aF7.7582005082763095
aF0.29289520780716066
aF7.076491982924702
aF0.0009100031903748082
atp7
a(g1
(lp8
F3.5178387011534067
aF3.4862296115590445
aF3.3435169154606874
aF2.7596653619412863
aF7.831320109136161
aF0.2096383647203885
aF7.276113035644876
aF6.605147434105383e-05
atp9
a(g1
(lp10
F3.343887973239398
aF3.3025460185086284
aF3.1178346502653977
aF2.396445746126006
aF7.351985120280465
aF0.16012971003925042
aF6.897753481925865
aF5.030381182384639e-06
atp11
a.