(lp0
(VC
p1
(lp2
F0.6767295676551031
aF0.6225988691865763
aF0.4231428269267249
aF0.0715969091241879
aF0.2502864004167502
aF0.039287474969063076
aF0.16171418567181933
aF0.00010074974774816069
atp3
a(g1
(lp4
F2.0234724868788727
aF1.9976627308119919
aF1.8953106805678779
aF1.607390432053862
aF1.7508075957116134
aF0.0030861237171939944
aF1.7416043078146257
aF4.1194650465580917e-10
atp5
a(g1
(lp6
F2.0693210376901714
aF2.039773482971639
aF1.9210727870117887
aF1.5841107724734593
aF1.7702265739170582
aF0.013305558184095732
aF1.7364254745954573
aF1.4749896719067092e-05
atp7
a(g1
(lp8
F2.129758954910434
aF2.0999143765674773
aF1.9795800319829564
aF1.6409639603017605
aF1.7607353574402884
aF0.0382829930607051
aF1.6738580079253051
aF0.00020824283801106484
atp9
a(g1
(lp10
F0.0
aF0.0
aF0.0
aF0.0
aF0.0
aF0.0
aF0.0
aF0.0
atp11
a.