(lp0
(VC
p1
(lp2
F0.00869429564500724
aF0.007361487234881735
aF0.003400500206762182
aF9.442004571182249e-05
aF2.97230562191466e-05
aF5.3219033440142285e-06
aF1.813414825963109e-05
aF1.8637653830833488e-08
atp3
a(g1
(lp4
F1.8222206041299644
aF1.810173398027126
aF1.755289955195112
aF1.5215493774603552
aF1.5192158968851237
aF0.0008514301918315207
aF1.5166644666936144
aF1.4962622270988656e-13
atp5
a(g1
(lp6
F1.8267746815784556
aF1.8143061734460577
aF1.758302614598367
aF1.5247585122898961
aF1.5187046342277
aF0.0013977378088183892
aF1.5145194752479934
aF1.1217086959596955e-10
atp7
a(g1
(lp8
F1.8262965524908905
aF1.8133335914677329
aF1.7555900749942874
aF1.5182684171684986
aF1.5196702386524126
aF0.00043213338410565
aF1.5183755015134917
aF7.579726152425006e-10
atp9
a(g1
(lp10
F0.0
aF0.0
aF0.0
aF0.0
aF0.0
aF0.0
aF0.0
aF0.0
atp11
a.