(lp0
(VC
p1
(lp2
F2.113165451825564
aF2.0675139661572643
aF1.8744125509200882
aF1.2672614257203103
aF2.2242488591744913
aF0.25008108231591103
aF1.6322045277508828
aF0.0004944348697828887
atp3
a(g1
(lp4
F2.442360340114159
aF2.4095519464157378
aF2.2652669985866547
aF1.7360282367485966
aF2.596561637512624
aF0.3538212068841709
aF1.7963169272011168
aF0.0013173972921741255
atp5
a(g1
(lp6
F2.2239721543109905
aF2.183670705017687
aF2.0111189614345406
aF1.4412596302309342
aF2.5083521020103623
aF0.14509168967935987
aF2.2094125959116933
aF0.0008671759862893218
atp7
a(g1
(lp8
F2.5546433534573376
aF2.5264498536509876
aF2.400309638502872
aF1.9042820361838655
aF2.1424506573021187
aF0.9165636495845356
aF1.24209685950927
aF0.13776480511063732
atp9
a(g1
(lp10
F0.0037941602326993385
aF0.0032082079995775148
aF0.0014726791830183242
aF3.967661401311522e-05
aF0.0
aF0.0
aF0.0
aF0.0
atp11
a.