(lp0
(VC
p1
(lp2
F2.174219833556349
aF2.1293488736168924
aF1.9396982475550133
aF1.3369169957264895
aF2.396218385273914
aF0.23891165086169008
aF1.814371495668782
aF0.00029967711727323993
atp3
a(g1
(lp4
F2.4929734677391657
aF2.462456406924083
aF2.327537309542055
aF1.821900775692164
aF2.668996967573595
aF0.43934836115998277
aF1.7376574827896198
aF0.0031709298240829974
atp5
a(g1
(lp6
F2.249543409419513
aF2.2099978596276357
aF2.040240098682323
aF1.474723707277682
aF2.622184820206021
aF0.14904144558688878
aF2.29570965696605
aF0.0006298161298746468
atp7
a(g1
(lp8
F2.5779705321216966
aF2.5500959082243253
aF2.426420473323108
aF1.9451538845017728
aF2.3003878862203173
aF0.8889720899719269
aF1.2971107736283662
aF0.09657747436219366
atp9
a(g1
(lp10
F0.015506864275669585
aF0.013202889739699502
aF0.006258838573087064
aF0.00019639373197885638
aF8.888814557747639e-05
aF1.6721026865206167e-05
aF5.299934043835261e-05
aF6.636618603685206e-08
atp11
a.