(lp0
(VC
p1
(lp2
F3.578888734951151
aF3.550920376451009
aF3.4241931948629327
aF2.8972662262066544
aF8.280702863647829
aF0.16307340960287728
aF7.8356771172065205
aF2.1248887390889215e-05
atp3
a(g1
(lp4
F3.5001306291549286
aF3.467917019001656
aF3.3230722833722703
aF2.7402138471163884
aF8.070449550591206
aF0.12292099890975237
aF7.722902952668593
aF4.4135251456828325e-06
atp5
a(g1
(lp6
F3.5856700436987197
aF3.5580614240986415
aF3.432856592690629
aF2.910321104085923
aF8.096267867308457
aF0.35342179061059664
aF7.343670891125563
aF0.002417902014753073
atp7
a(g1
(lp8
F3.560426228142811
aF3.5312825909923187
aF3.399302899210375
aF2.8520597280689537
aF8.178730106997575
aF0.19926841438194817
aF7.652660871190659
aF8.32937871691731e-05
atp9
a(g1
(lp10
F3.411713619000719
aF3.37417162152183
aF3.2058616080117837
aF2.5382083364481076
aF7.743045545122733
aF0.1670878867327722
aF7.270936082131359
aF7.940123667286401e-06
atp11
a.