(lp0
(VC
p1
(lp2
F0.0
aF0.0
aF0.0
aF0.0
aF0.0
aF0.0
aF0.0
aF0.0
atp3
a(g1
(lp4
F1.849924102878337
aF1.839649732845142
aF1.7927077548971384
aF1.5901291743836627
aF1.6051634500288767
aF0.00046258264249076145
aF1.603776501571271
aF1.1061757359749254e-14
atp5
a(g1
(lp6
F1.8659003973901847
aF1.8566608138695455
aF1.8143703325388019
aF1.630352073504352
aF1.5941690724252522
aF0.011456960246115273
aF1.5602863700126415
aF4.1624058364799924e-09
atp7
a(g1
(lp8
F1.853420232925516
aF1.843374609413831
aF1.7974638742792803
aF1.599057866281156
aF1.6056096121307841
aF1.6420540583150623e-05
aF1.6055603515166128
aF1.7563723809668846e-20
atp9
a(g1
(lp10
F0.0
aF0.0
aF0.0
aF0.0
aF0.0
aF0.0
aF0.0
aF0.0
atp11
a.