(lp0
(VC
p1
(lp2
F0.0
aF0.0
aF0.0
aF0.0
aF0.0
aF0.0
aF0.0
aF0.0
atp3
a(g1
(lp4
F1.8044568953124227
aF1.7913154210522744
aF1.7315838165451498
aF1.47981504935887
aF1.5158211997391007
aF0.009402489772194432
aF1.4879600824062067
aF2.2027786199691947e-09
atp5
a(g1
(lp6
F1.8479139874005313
aF1.8375135247891157
aF1.7900100354940838
aF1.5852918445808006
aF1.4901459722153823
aF0.03507771729591268
aF1.3896794228585612
aF4.2670199013081857e-07
atp7
a(g1
(lp8
F1.8215663574874061
aF1.809528083756269
aF1.7547490664154421
aF1.5226189234021454
aF1.5252113264082372
aF1.2363103058079703e-05
aF1.5251742377003343
aF6.5842957783004275e-21
atp9
a(g1
(lp10
F0.0
aF0.0
aF0.0
aF0.0
aF0.0
aF0.0
aF0.0
aF0.0
atp11
a.