(lp0
(VC
p1
(lp2
F0.6947234736314534
aF0.6397732849160873
aF0.43673313176996387
aF0.07528102572600165
aF0.26465246866209485
aF0.04113946490844826
aF0.1716764819835029
aF0.00010296737342005392
atp3
a(g1
(lp4
F2.0372984273363532
aF2.0112063583838564
aF1.907744179272412
aF1.6188516882317017
aF1.7612382372509634
aF0.006763719989338716
aF1.7411362408306112
aF1.52552972763105e-09
atp5
a(g1
(lp6
F2.073259305246358
aF2.043571074955271
aF1.9242286350867497
aF1.5853394285403306
aF1.7806421722247712
aF0.013681884021339767
aF1.74540778624955
aF1.2153628096927332e-05
atp7
a(g1
(lp8
F2.131628958306454
aF2.101494045869452
aF1.979804637879024
aF1.6360852449023353
aF1.7758962423034224
aF0.034799225861022035
aF1.6980845264115714
aF0.00017131991588650018
atp9
a(g1
(lp10
F0.0
aF0.0
aF0.0
aF0.0
aF0.0
aF0.0
aF0.0
aF0.0
atp11
a.