(lp0
(VC
p1
(lp2
F2.3205468837353536
aF2.281909180025103
aF2.1135200602762607
aF1.521142500664679
aF2.9257378961290503
aF0.23814158951877923
aF2.344039833167783
aF0.0003351129068534868
atp3
a(g1
(lp4
F2.5885043172114215
aF2.5626270351003204
aF2.446997058571195
aF1.9939871517154668
aF3.12555498029058
aF0.43327858822772314
aF2.119193362712854
aF0.0008192021599391092
atp5
a(g1
(lp6
F2.3381404453410184
aF2.2999457157552503
aF2.1328056360472987
aF1.5334706138377165
aF3.0525906093564004
aF0.14784564037789186
aF2.6679373448338755
aF6.619967405380243e-05
atp7
a(g1
(lp8
F2.6663016504203005
aF2.6446366336604825
aF2.5470345469817914
aF2.1509329699034523
aF2.724538573520647
aF0.9194734300162585
aF1.6773988551814227
aF0.08218167221553549
atp9
a(g1
(lp10
F0.0
aF0.0
aF0.0
aF0.0
aF0.0
aF0.0
aF0.0
aF0.0
atp11
a.