(lp0
(VC
p1
(lp2
F2.3776580206043008
aF2.3414862034010047
aF2.1830525919889032
aF1.6142129481457106
aF3.1272762693730476
aF0.1898838343439096
aF2.6394728901296443
aF0.00010930422099475366
atp3
a(g1
(lp4
F2.602295893920238
aF2.57702159061413
aF2.4637869806340618
aF2.015150516524821
aF3.238534169566517
aF0.4144508702074301
aF2.2618513261494915
aF0.0006972371531718642
atp5
a(g1
(lp6
F2.377692717596636
aF2.341060499301289
aF2.1800571728544176
aF1.5928125775017785
aF3.187501120249413
aF0.1373899003855883
aF2.829362082134163
aF6.25251667917257e-05
atp7
a(g1
(lp8
F2.667350680488498
aF2.6457628232561072
aF2.548516887294501
aF2.153975462049771
aF2.913929018190554
aF0.8131808991236672
aF1.8005415840546621
aF0.04305640241748397
atp9
a(g1
(lp10
F0.0
aF0.0
aF0.0
aF0.0
aF0.0
aF0.0
aF0.0
aF0.0
atp11
a.