(lp0
(VC
p1
(lp2
F0.004871591691470419
aF0.0041077859665506955
aF0.0018613929172965802
aF4.722945110366888e-05
aF9.999893026743015e-06
aF1.849516989966624e-06
aF6.0102319768379955e-06
aF7.033040506513129e-09
atp3
a(g1
(lp4
F1.827790745723839
aF1.8160965106640437
aF1.762789715393896
aF1.5351506197141567
aF1.5430079686984761
aF2.453285258159373e-05
aF1.5429343724810103
aF9.85977433070337e-20
atp5
a(g1
(lp6
F1.8329535774377612
aF1.8210814546207765
aF1.767533345599151
aF1.5422437156924675
aF1.5425025647653092
aF0.0005417861957651279
aF1.540878541094959
aF9.723431119425231e-11
atp7
a(g1
(lp8
F1.8386371013524712
aF1.8270657222327151
aF1.7749236738953362
aF1.5554610926015806
aF1.5394793014157135
aF0.0035650495453605994
aF1.528833709205561
aF1.79192967785957e-10
atp9
a(g1
(lp10
F0.0
aF0.0
aF0.0
aF0.0
aF0.0
aF0.0
aF0.0
aF0.0
atp11
a.