(lp0
(VC
p1
(lp2
F0.0
aF0.0
aF0.0
aF0.0
aF0.0
aF0.0
aF0.0
aF0.0
atp3
a(g1
(lp4
F1.816623554305371
aF1.8042408053145358
aF1.747882951742861
aF1.508890462108671
aF1.5140454850541116
aF2.6621108620079204e-05
aF1.513965624536605
aF1.4469878161388446e-19
atp5
a(g1
(lp6
F1.8341429289906905
aF1.8228533868356842
aF1.771357075767372
aF1.5507774127898957
aF1.4996508726242341
aF0.014421233538497268
aF1.4572061073536928
aF1.2461489736351771e-08
atp7
a(g1
(lp8
F1.8088755307521407
aF1.7959988497573622
aF1.7374308856979752
aF1.4898133872036183
aF1.5126036780747882
aF0.0014684280879433953
aF1.5082069332478618
aF1.3395874085109092e-12
atp9
a(g1
(lp10
F0.0
aF0.0
aF0.0
aF0.0
aF0.0
aF0.0
aF0.0
aF0.0
atp11
a.