(lp0
(VC
p1
(lp2
F2.7736690764166063
aF2.719115419698931
aF2.4901910807967087
aF1.772706497106637
aF4.186652630426943
aF0.11793401513343012
aF3.8631577708214198
aF2.0248852967312345e-05
atp3
a(g1
(lp4
F3.2579904271937257
aF3.21454977470606
aF3.023602136956347
aF2.3231551577556986
aF4.347705384542387
aF0.7717288458451794
aF2.9367024194944555
aF0.018959008664218884
atp5
a(g1
(lp6
F2.731309024202877
aF2.6714735806443572
aF2.418828654224381
aF1.619254521617212
aF4.069172010162178
aF0.15914135644110472
aF3.641733579904681
aF2.8822748440938046e-05
atp7
a(g1
(lp8
F3.1561376297380015
aF3.109728141074694
aF2.9085268984064454
aF2.209655488615528
aF4.441328024091544
aF0.527238608536005
aF3.445254745416727
aF0.02255196552380926
atp9
a(g1
(lp10
F1.890068337658548
aF1.8066125588316293
aF1.4690711439818067
aF0.5942184893199091
aF2.066369225041291
aF0.22070139359686966
aF1.5461319598116428
aF0.0004945404711416728
atp11
a.