(lp0
(VC
p1
(lp2
F2.5020879620329874
aF2.453978243363056
aF2.2536405035716207
aF1.6131687811351307
aF3.368005777431474
aF0.1472726243019388
aF2.963644181888039
aF1.3120740279935045e-05
atp3
a(g1
(lp4
F2.7599765127763836
aF2.7213474037641503
aF2.561467363315752
aF2.044777742109699
aF3.7081095842805087
aF0.18402115579562733
aF3.2354566476749116
aF0.00015982783495433562
atp5
a(g1
(lp6
F2.525587087514016
aF2.48573430494007
aF2.318185502983683
aF1.7558663400110897
aF3.5163789183170215
aF0.08815032706132983
aF3.284240062429392
aF2.8538367712762542e-05
atp7
a(g1
(lp8
F2.9230654857135088
aF2.884424707190025
aF2.724712463807083
aF2.220044942748539
aF3.4636951545386365
aF0.5579616918025678
aF2.4490397870894025
aF0.008362592184766034
atp9
a(g1
(lp10
F0.5477842454739476
aF0.49610412763885625
aF0.314043106279111
aF0.0396985724235838
aF0.16895868793136154
aF0.02505326980591577
aF0.11205123991290064
aF6.207281023984313e-05
atp11
a.