(lp0
(VC
p1
(lp2
F2.361100755056543
aF2.3153709315216875
aF2.1244459192569787
aF1.5160675330855324
aF2.930043622611215
aF0.15901942741202887
aF2.5113173691776147
aF5.910309735136139e-05
atp3
a(g1
(lp4
F2.6119592030928063
aF2.583356569543912
aF2.4587176294889
aF1.9872462146557799
aF3.0888265092184297
aF0.4178935467760816
aF2.2212415304264463
aF0.003980025362936507
atp5
a(g1
(lp6
F2.3158296014131152
aF2.2771883404834337
aF2.1096871070807026
aF1.5269525162162298
aF2.9520441309943988
aF0.14271385992313312
aF2.59269579528205
aF0.00014668551645250814
atp7
a(g1
(lp8
F2.7354311539920095
aF2.6995069605646176
aF2.5503084241711798
aF2.0556884485378784
aF2.957826644853065
aF0.5926793035028608
aF1.9720947224156458
aF0.0177116822051582
atp9
a(g1
(lp10
F0.18937964658130438
aF0.16779845785935524
aF0.09593279169390727
aF0.007490187452287538
aF0.016199119482875952
aF0.002759104841934765
aF0.010127280886596007
aF9.012085739397854e-06
atp11
a.