(lp0
(VC
p1
(lp2
F1.3629193419072823
aF1.2967761790566341
aF1.0298834598540014
aF0.3570111209679574
aF1.033538546052501
aF0.11625675291159812
aF0.7508841927089418
aF0.00012295868034607735
atp3
a(g1
(lp4
F2.3501038972126604
aF2.3169798384941243
aF2.1754475462357394
aF1.7070668155784927
aF2.210314012341975
aF0.11987486683910545
aF1.92914063040272
aF0.00029644398101505177
atp5
a(g1
(lp6
F2.207486223062948
aF2.1724223756316157
aF2.0259970044555295
aF1.574013360087585
aF2.2177062459174777
aF0.005071513755639147
aF2.202868613539928
aF1.2219530831665318e-08
atp7
a(g1
(lp8
F2.25695035630791
aF2.2219398597925073
aF2.0743236564365755
aF1.6059249027894307
aF2.2448776246897437
aF0.024356488148588
aF2.18031427166149
aF6.607036306014381e-06
atp9
a(g1
(lp10
F0.0
aF0.0
aF0.0
aF0.0
aF0.0
aF0.0
aF0.0
aF0.0
atp11
a.