(lp0
(VC
p1
(lp2
F2.1539237115498966
aF2.109672353111576
aF1.9205767002968912
aF1.3084080573561596
aF2.3390724371345466
aF0.28694006358673224
aF1.6679552287653703
aF0.0006224226570992424
atp3
a(g1
(lp4
F2.4505916931776506
aF2.4183761934915315
aF2.2767633543007095
aF1.7575794687553312
aF2.6825569957234445
aF0.3754554728439746
aF1.8262468040384587
aF0.0010379507026841562
atp5
a(g1
(lp6
F2.275865874357042
aF2.2364698276679498
aF2.06622308137332
aF1.4843749609951047
aF2.701411364065883
aF0.12349855173137916
aF2.4174248099032423
aF0.0002933898918641124
atp7
a(g1
(lp8
F2.5922468953161144
aF2.5661493936138937
aF2.449043150138776
aF1.9824065264587136
aF2.135070143170934
aF1.0695266828683616
aF1.2483850695718852
aF0.1796414484337878
atp9
a(g1
(lp10
F0.0
aF0.0
aF0.0
aF0.0
aF0.0
aF0.0
aF0.0
aF0.0
atp11
a.