(lp0
(VC
p1
(lp2
F2.88672449096285
aF2.832449945949206
aF2.6020863512199983
aF1.8583796432293624
aF4.620737686479071
aF0.1638403525926692
aF4.172815026852749
aF3.096349551679389e-05
atp3
a(g1
(lp4
F3.3750278496676316
aF3.3364014754927247
aF3.1645390813064056
aF2.503321879069964
aF4.61795256814423
aF1.1114433034234767
aF2.941119468072327
aF0.04951859055532929
atp5
a(g1
(lp6
F2.7946542061678192
aF2.732903241492888
aF2.4693317587281554
aF1.6125107565571828
aF4.354112833220134
aF0.23761537313435233
aF3.750337216008239
aF0.00017680180598826683
atp7
a(g1
(lp8
F3.227433142109619
aF3.1828929985966443
aF2.9880706925234044
aF2.2906916208299615
aF4.850009176057396
aF0.6079756753799301
aF3.7620238215705823
aF0.03044351675027473
atp9
a(g1
(lp10
F2.256071824882414
aF2.1769389786097957
aF1.8484725608613566
aF0.9036823078112619
aF2.9831512444563955
aF0.2766541325696844
aF2.3200390665549415
aF0.0004972751647591032
atp11
a.