(lp0
(VC
p1
(lp2
F0.44561906501065196
aF0.404791504764006
aF0.25974337076915444
aF0.03457643752468896
aF0.099204464102191
aF0.016194659259177638
aF0.06307500099515662
aF4.6158402979033444e-05
atp3
a(g1
(lp4
F1.863577240364024
aF1.84198229062041
aF1.7537197571850716
aF1.4618668765981622
aF1.5331561762282118
aF0.0024269165282762993
aF1.5259979773137686
aF1.2580216352869158e-08
atp5
a(g1
(lp6
F1.9694615299390694
aF1.9417955381453142
aF1.8308942906836723
aF1.5049985043144254
aF1.568762151733446
aF0.005724482134303315
aF1.5556973273154528
aF2.9761771002105667e-05
atp7
a(g1
(lp8
F2.039117758668934
aF2.008920750653302
aF1.8873377201184431
aF1.5372130668031827
aF1.5556210302459625
aF0.026753269257833154
aF1.4980617828017324
aF0.0004724067964368017
atp9
a(g1
(lp10
F0.0
aF0.0
aF0.0
aF0.0
aF0.0
aF0.0
aF0.0
aF0.0
atp11
a.