(lp0
(VC
p1
(lp2
F0.0
aF0.0
aF0.0
aF0.0
aF0.0
aF0.0
aF0.0
aF0.0
atp3
a(g1
(lp4
F1.822725263788437
aF1.8107116812903978
aF1.7559805358603753
aF1.522868770459806
aF1.537102485400284
aF0.0001545169022352357
aF1.5366390278746396
aF1.5691502534758925e-16
atp5
a(g1
(lp6
F1.8367182631555254
aF1.8255922603271073
aF1.7748268889170222
aF1.5570842368737061
aF1.5310107197247562
aF0.006246282577762963
aF1.5124237417113122
aF4.1903188469955494e-10
atp7
a(g1
(lp8
F1.8281520788788188
aF1.8164851956969768
aF1.7633063231587593
aF1.5362704468707604
aF1.5368109362743456
aF0.0004460660281734598
aF1.535473514649765
aF1.0898259803743179e-14
atp9
a(g1
(lp10
F0.0
aF0.0
aF0.0
aF0.0
aF0.0
aF0.0
aF0.0
aF0.0
atp11
a.