(lp0
(VC
p1
(lp2
F2.742534403135964
aF2.6881285874186
aF2.4603762109803045
aF1.7493319226568353
aF4.087379987534833
aF0.10439120932176828
aF3.8009361868634386
aF1.5468735397968854e-05
atp3
a(g1
(lp4
F3.20928677362826
aF3.1642446559988127
aF2.9673847752256557
aF2.2604694270612193
aF4.304406884007017
aF0.6442102231305392
aF3.0460305569284127
aF0.013330105862780267
atp5
a(g1
(lp6
F2.7380152288172055
aF2.679935259519963
aF2.4352847510330773
aF1.6633159109934086
aF4.061218577894357
aF0.127602471299503
aF3.7141790376278117
aF1.8332123468977406e-05
atp7
a(g1
(lp8
F3.1360482984947735
aF3.089317489257395
aF2.887243769225728
aF2.1900979613794753
aF4.34696757827546
aF0.5009536220064278
aF3.3675582997375013
aF0.017924369719329022
atp9
a(g1
(lp10
F1.77656580652636
aF1.6924113056596872
aF1.354830218016752
aF0.5092394112616022
aF1.8266740267129382
aF0.19716382638213015
aF1.3614996541169575
aF0.00044098049642833247
atp11
a.