(lp0
(VC
p1
(lp2
F0.0
aF0.0
aF0.0
aF0.0
aF0.0
aF0.0
aF0.0
aF0.0
atp3
a(g1
(lp4
F1.8429025491310518
aF1.8321750859866783
aF1.783198576561703
aF1.5725433382261267
aF1.5725246919672113
aF0.0005770603405232679
aF1.5707947807320657
aF2.8484884726354634e-14
atp5
a(g1
(lp6
F1.8383555677730308
aF1.8273345659335658
aF1.7770398326259471
aF1.5611492022729456
aF1.5730503072068212
aF5.144510091363599e-05
aF1.572895981998306
aF1.7993085736799304e-18
atp7
a(g1
(lp8
F1.8493707313343832
aF1.8390570586343316
aF1.7919339362726399
aF1.58854702101373
aF1.5679314672038793
aF0.005170285103855392
aF1.5525223471681995
aF1.835640044838371e-10
atp9
a(g1
(lp10
F0.0
aF0.0
aF0.0
aF0.0
aF0.0
aF0.0
aF0.0
aF0.0
atp11
a.