(lp0
(VC
p1
(lp2
F2.205292844080842
aF2.16083727717108
aF1.9734019760113353
aF1.3770398308359344
aF2.4806002051391096
aF0.21883067381292215
aF1.9370492397108956
aF0.0002102090127187241
atp3
a(g1
(lp4
F2.5157146969392827
aF2.4859212920524723
aF2.3535134298241203
aF1.8465865796780219
aF2.723118372953398
aF0.4430472011585116
aF1.7977712290506305
aF0.0038848170002563484
atp5
a(g1
(lp6
F2.222806419332725
aF2.1817612506647217
aF2.0054670597329207
aF1.4168331401507186
aF2.59837820942861
aF0.15888946490138392
aF2.2372562997862513
aF0.0005585149707052511
atp7
a(g1
(lp8
F2.5932270149920695
aF2.5648905517403504
aF2.4405654808125234
aF1.9662979762645
aF2.3991446498683215
aF0.8290659507810743
aF1.4160611026772656
aF0.0798614225065646
atp9
a(g1
(lp10
F0.027921049871600278
aF0.0239130066367687
aF0.011648808750100617
aF0.00041379883471266395
aF0.00032449224903608094
aF6.036671073828809e-05
aF0.0001944968199791219
aF2.329620855502824e-07
atp11
a.