(lp0
(VC
p1
(lp2
F3.421919889435099
aF3.3852024095366473
aF3.2207650731031006
aF2.571124527746873
aF7.301461022889911
aF0.1298227617161621
aF6.949972951069877
aF3.07360992914722e-05
atp3
a(g1
(lp4
F3.418603120733003
aF3.381730590958422
aF3.2166383431837566
aF2.5647350994249867
aF7.263506043589419
aF0.1573306518689666
aF6.842533488111583
aF5.4362701312642304e-05
atp5
a(g1
(lp6
F3.409876276430674
aF3.372095500107703
aF3.2025974976036897
aF2.528569591086291
aF7.167268503671444
aF0.21167903911913571
aF6.616038958699123
aF0.00011920351868383937
atp7
a(g1
(lp8
F3.4458342243758295
aF3.410241017829356
aF3.2504038385134786
aF2.611792779357188
aF7.246194787543666
aF0.23587396996691104
aF6.638625837547687
aF0.00015156783076693958
atp9
a(g1
(lp10
F3.2171159161938414
aF3.1689928240901577
aF2.9554011610413267
aF2.1458108206986415
aF6.671600180819766
aF0.15550115533385206
aF6.2334748205152515
aF7.077811986366652e-06
atp11
a.