(lp0
(VC
p1
(lp2
F3.6078932055751154
aF3.5816608222431268
aF3.4625649279479926
aF2.962993706521217
aF8.472415314268998
aF0.17295035847772403
aF8.004121203326568
aF3.0232812198855376e-05
atp3
a(g1
(lp4
F3.5207131136668277
aF3.489693701783813
aF3.3500615270112912
aF2.7853755996539107
aF8.239337188097542
aF0.12485505758017736
aF7.886810833592573
aF4.7246761042499675e-06
atp5
a(g1
(lp6
F3.618137373216157
aF3.5925123084812136
aF3.4760780540272487
aF2.9858908994534983
aF8.273678877300032
aF0.39013744568874315
aF7.486323602534269
aF0.003872350019868708
atp7
a(g1
(lp8
F3.5832587521456274
aF3.5554681967718222
aF3.429417972657118
aF2.9030726014770742
aF8.366025363696007
aF0.19493627225625648
aF7.854927073756639
aF0.00010173942502351104
atp9
a(g1
(lp10
F3.4471060375345317
aF3.4115908497944845
aF3.252084816800129
aF2.6142411559329948
aF7.9530394762183425
aF0.17183623004760248
aF7.4696668034064215
aF1.1006293580401887e-05
atp11
a.