(lp0
(VC
p1
(lp2
F0.0021101342629928493
aF0.0017729236362968434
aF0.0007901349356485873
aF1.8566774282810205e-05
aF1.6767831373151607e-06
aF3.2259076627106654e-07
aF9.890665934271725e-07
aF1.3549574922148652e-09
atp3
a(g1
(lp4
F1.8383033297996274
aF1.8272820536574963
aF1.7769900567043395
aF1.5611853558731448
aF1.5765267817765003
aF0.00038819975746530856
aF1.5753627558044636
aF5.791568551541428e-15
atp5
a(g1
(lp6
F1.8436211687211053
aF1.832628443080735
aF1.7828188553089137
aF1.5710454918545906
aF1.5768723505702338
aF4.4630337635521454e-05
aF1.5767385198075676
aF4.228639470929443e-11
atp7
a(g1
(lp8
F1.8554534321876077
aF1.8453754910407651
aF1.799490610551611
aF1.6020809337331574
aF1.566548779648387
aF0.010368201259482355
aF1.5358514300535915
aF2.9574937218258568e-09
atp9
a(g1
(lp10
F0.0
aF0.0
aF0.0
aF0.0
aF0.0
aF0.0
aF0.0
aF0.0
atp11
a.