(lp0
(VC
p1
(lp2
F0.038649889967765166
aF0.03332279104500272
aF0.016749736843388194
aF0.0006947124431255602
aF0.0004966738748484082
aF8.56080511992602e-05
aF0.00030823740291546016
aF2.7205612849418247e-07
atp3
a(g1
(lp4
F1.8482433099034332
aF1.837870431494232
aF1.7904990112648316
aF1.5864620092481165
aF1.5372057338494218
aF0.014215378675851518
aF1.4953363518109888
aF1.0935650975034634e-08
atp5
a(g1
(lp6
F1.8506487541382766
aF1.8381977525131066
aF1.7837861424702115
aF1.5667094803393142
aF1.5488364301407669
aF0.0031669643105542693
aF1.5393749161096866
aF6.333242859722263e-11
atp7
a(g1
(lp8
F1.8449188662611775
aF1.828772433716749
aF1.7605686681483743
aF1.5093505546796973
aF1.5443056398769288
aF0.007697754574392321
aF1.5214762767487766
aF8.621907827400442e-08
atp9
a(g1
(lp10
F0.0
aF0.0
aF0.0
aF0.0
aF0.0
aF0.0
aF0.0
aF0.0
atp11
a.