(lp0
(VC
p1
(lp2
F2.085816297014945
aF2.040058053188763
aF1.846572377149283
aF1.2429635202281424
aF2.1306234449463277
aF0.2519538395152213
aF1.5467579636795166
aF0.0007178246335474808
atp3
a(g1
(lp4
F2.404656190411104
aF2.3698542039693318
aF2.2170303882478293
aF1.6599872911488247
aF2.538902272458911
aF0.29900092434906284
aF1.8364375346006128
aF0.0006580677647017919
atp5
a(g1
(lp6
F2.182863202489913
aF2.1407353070411244
aF1.9605824728652754
aF1.3680377096798446
aF2.3916960842742694
aF0.14839429615809505
aF2.0968081048840763
aF0.00111284035357853
atp7
a(g1
(lp8
F2.5412367662097717
aF2.5123595068898243
aF2.3833488905262623
aF1.8792440650350097
aF2.033533691726449
aF0.927669867226401
aF1.2278388567432164
aF0.1733312964259269
atp9
a(g1
(lp10
F0.000934900580652523
aF0.0007848952708978871
aF0.0003485505619069098
aF8.051792188027124e-06
aF0.0
aF0.0
aF0.0
aF0.0
atp11
a.