(lp0
(VC
p1
(lp2
F2.621087831353715
aF2.5966605631418873
aF2.4868425086749095
aF2.04561454074187
aF4.1131467063807765
aF0.09311273216206414
aF3.860113146591202
aF1.3901879578015038e-05
atp3
a(g1
(lp4
F2.784808441616302
aF2.7700413753380815
aF2.7025278733545997
aF2.4102763360370822
aF3.9653572152396337
aF0.49926129857667134
aF3.0680642753626994
aF0.009937743800846091
atp5
a(g1
(lp6
F2.6246272932164323
aF2.600369150439833
aF2.4912363151824093
aF2.051353667776651
aF4.114983967961623
aF0.09804636177652026
aF3.855597273460874
aF2.5837139066203316e-05
atp7
a(g1
(lp8
F2.6950250247652443
aF2.6746039661431906
aF2.5818780229951255
aF2.1928106162011693
aF4.242894703972727
aF0.09187056980483939
aF3.9914727768951606
aF1.2484184563470838e-05
atp9
a(g1
(lp10
F0.0
aF0.0
aF0.0
aF0.0
aF0.0
aF0.0
aF0.0
aF0.0
atp11
a.