(lp0
(VC
p1
(lp2
F1.8198790730503502
aF1.7623754617282457
aF1.5205853968053982
aF0.7911835926957811
aF1.7975054579485583
aF0.2178362679705374
aF1.28126159471328
aF0.0003653378094820575
atp3
a(g1
(lp4
F2.580386002257507
aF2.5541090180056836
aF2.436800236701
aF1.9787372307544668
aF2.4407901288426506
aF0.5584031184592125
aF1.7213019749082292
aF0.035524340903034024
atp5
a(g1
(lp6
F2.31519745178145
aF2.2804749845553443
aF2.1322074792174277
aF1.6422860556742838
aF2.6729990626116655
aF0.06165825367056386
aF2.514336249825337
aF2.983380945007371e-05
atp7
a(g1
(lp8
F2.3738098788309037
aF2.340116281608331
aF2.194621038675164
aF1.6949731075349175
aF2.757817735973794
aF0.056520568422377605
aF2.6050312715034463
aF1.0680765034416694e-05
atp9
a(g1
(lp10
F0.0
aF0.0
aF0.0
aF0.0
aF0.0
aF0.0
aF0.0
aF0.0
atp11
a.