(lp0
(VC
p1
(lp2
F2.0590630440410345
aF2.008955704265596
aF1.7940561698444946
aF1.089576311773675
aF2.2828123865430885
aF0.3424299184711763
aF1.5241075243825037
aF0.0013671242796286583
atp3
a(g1
(lp4
F2.680159678421492
aF2.659129102397788
aF2.5640783965047294
aF2.173011314802874
aF2.5502378567141974
aF0.9580722977456264
aF1.7776022670765772
aF0.1872498875443312
atp5
a(g1
(lp6
F2.4445808358906107
aF2.4142787829691423
aF2.283107612752351
aF1.8288795011475458
aF3.0658923291784603
aF0.16262805102539057
aF2.718350808175542
aF0.0007450487790449145
atp7
a(g1
(lp8
F2.492710758735332
aF2.4636581099583434
aF2.336588446636416
aF1.879060153957886
aF3.1945006152774633
aF0.10878405545531264
aF2.908523236744908
aF3.210424190101925e-05
atp9
a(g1
(lp10
F0.0
aF0.0
aF0.0
aF0.0
aF0.0
aF0.0
aF0.0
aF0.0
atp11
a.