(lp0
(VC
p1
(lp2
F0.09558107608983821
aF0.08364493006777586
aF0.04504038644066778
aF0.002553031789262913
aF0.0037731890880015667
aF0.0006945222975933273
aF0.0022728927821096057
aF2.6090923022241075e-06
atp3
a(g1
(lp4
F1.840441069421908
aF1.8295721257267537
aF1.7799826225369981
aF1.5673168408726212
aF1.586330549862278
aF0.0020466426607890827
aF1.5802064310310142
aF4.378316599382311e-12
atp5
a(g1
(lp6
F1.88163285252047
aF1.8655550318412684
aF1.7993118143575408
aF1.5692387428429453
aF1.5908772119907593
aF0.0019676919179029404
aF1.5850102181456698
aF3.5397239316755393e-09
atp7
a(g1
(lp8
F1.922777472572684
aF1.9069732332494411
aF1.843464814211445
aF1.637327872842387
aF1.5612153277277856
aF0.031629576180876647
aF1.470162356245038
aF5.146020397263315e-07
atp9
a(g1
(lp10
F0.0
aF0.0
aF0.0
aF0.0
aF0.0
aF0.0
aF0.0
aF0.0
atp11
a.