(lp0
(VC
p1
(lp2
F2.3359540237791636
aF2.2979541329543776
aF2.1321005656363288
aF1.5450529005169402
aF2.979007095413639
aF0.23171767343197716
aF2.40876790158068
aF0.00029117303346865687
atp3
a(g1
(lp4
F2.5967514700973866
aF2.571292488544734
aF2.4574200305419094
aF2.009448672876405
aF3.1604852183064764
aF0.43590679571083235
aF2.1480205214362265
aF0.0008374630495318024
atp5
a(g1
(lp6
F2.348123366311209
aF2.3103079285812425
aF2.1446371521345644
aF1.5478798829770257
aF3.089166383292328
aF0.14903239256482997
aF2.7008371959833433
aF6.381994191857248e-05
atp7
a(g1
(lp8
F2.669995721146962
aF2.648556198032295
aF2.551952290007396
aF2.1595735270316805
aF2.774405881761038
aF0.9029699719668068
aF1.709194146032725
aF0.07379875299218738
atp9
a(g1
(lp10
F0.0
aF0.0
aF0.0
aF0.0
aF0.0
aF0.0
aF0.0
aF0.0
atp11
a.