(lp0
(VC
p1
(lp2
F0.05293534140995895
aF0.04583195847251364
aF0.02348979176155436
aF0.0010640836001492974
aF0.001043142256136601
aF0.00018016192226170957
aF0.0006468011391229829
aF5.755044027150804e-07
atp3
a(g1
(lp4
F1.8448451948851252
aF1.8342398619905629
aF1.7858075892000076
aF1.5772334573495603
aF1.546013736416651
aF0.008246146046320976
aF1.5215368712550494
aF1.2314964854897572e-09
atp5
a(g1
(lp6
F1.8515843655474233
aF1.8377764405259551
aF1.7784951482707538
aF1.5505145325833405
aF1.5553008795967824
aF0.000182307044588042
aF1.5547568188778347
aF1.780017724986762e-10
atp7
a(g1
(lp8
F1.8646442150577847
aF1.8484583020609373
aF1.7810204633732991
aF1.5401813568045086
aF1.5551274250025158
aF0.0003557616388548794
aF1.5541311481237583
aF1.3049074235311543e-07
atp9
a(g1
(lp10
F0.0
aF0.0
aF0.0
aF0.0
aF0.0
aF0.0
aF0.0
aF0.0
atp11
a.