(lp0
(VC
p1
(lp2
F2.3671209299662688
aF2.3237854883155973
aF2.142830302571239
aF1.5665014058283755
aF2.9143871405976682
aF0.199052933465782
aF2.3974975561817256
aF8.446898812103853e-05
atp3
a(g1
(lp4
F2.6209012139859915
aF2.5950040546359547
aF2.480045300002491
aF2.0269937460734666
aF3.031304412903106
aF0.5095142427222912
aF2.030065717101838
aF0.007008640986627015
atp5
a(g1
(lp6
F2.266848430172742
aF2.2263801265658207
aF2.0509830826328277
aF1.445085727839155
aF2.8238345114314303
aF0.20401226052883525
aF2.325475869458136
aF0.000360377356019487
atp7
a(g1
(lp8
F2.714800292763207
aF2.6834049791075585
aF2.552268581662891
aF2.105310184996235
aF2.817859994159286
aF0.7534784877649119
aF1.7665117951000795
aF0.04282495574775692
atp9
a(g1
(lp10
F0.12740686969115345
aF0.11195575827759538
aF0.06150478929207174
aF0.0038891016625667275
aF0.007170962931116777
aF0.0013061307677721997
aF0.004345686152523651
aF4.918914725123485e-06
atp11
a.