(lp0
(VC
p1
(lp2
F2.600055015167385
aF2.5744440750973596
aF2.4595089377172163
aF2.0013504591113227
aF4.026775074679932
aF0.10894088392103832
aF3.735168307147379
aF2.565467841248175e-05
atp3
a(g1
(lp4
F2.782987436075298
aF2.768100315581747
aF2.700044393787521
aF2.4055750617164855
aF3.862207448188423
aF0.5593797737687911
aF2.899964947818627
aF0.014585877591614949
atp5
a(g1
(lp6
F2.6129540207942337
aF2.5880792566491015
aF2.4763307853910734
aF2.028641854238711
aF4.053644999843494
aF0.10452201196333491
aF3.781284537540099
aF3.730826530917167e-05
atp7
a(g1
(lp8
F2.681989016653454
aF2.6607883327298927
aF2.5646374555091036
aF2.163357591910976
aF4.186774179480054
aF0.09081128997008792
aF3.936623219630948
aF1.0376326513558746e-05
atp9
a(g1
(lp10
F0.0
aF0.0
aF0.0
aF0.0
aF0.0
aF0.0
aF0.0
aF0.0
atp11
a.