(lp0
(VC
p1
(lp2
F2.3212321365526734
aF2.2779305360534488
aF2.096601162254318
aF1.5168749292872667
aF2.783613566096451
aF0.2568194416422113
aF2.1406738428251932
aF0.00019427217471666594
atp3
a(g1
(lp4
F2.627061370449047
aF2.602887319023046
aF2.494351843703781
aF2.05899324265076
aF2.982072340379332
aF0.553254866469518
aF1.957095774044618
aF0.01111402570182964
atp5
a(g1
(lp6
F2.238221035311711
aF2.196943690041448
aF2.0186679827136182
aF1.4103018866152819
aF2.725170953666744
aF0.24222818633791732
aF2.1397769147876273
aF0.0004749681139184063
atp7
a(g1
(lp8
F2.6987347795299237
aF2.671198153483912
aF2.554370462275184
aF2.135811273775981
aF2.7195901376867955
aF0.8443176434719095
aF1.6859459597271516
aF0.06983543466901757
atp9
a(g1
(lp10
F0.08000045305398566
aF0.06969129725451968
aF0.03674099870542877
aF0.0018870856089055871
aF0.0027133112368709876
aF0.0004818909801813376
aF0.001661909482158703
aF1.6663858046715e-06
atp11
a.