(lp0
(VC
p1
(lp2
F2.6315727819217267
aF2.6075159417594778
aF2.49901505774408
aF2.0571572490760834
aF4.211658321868513
aF0.07187210721592678
aF4.007046768510261
aF1.776634647680279e-06
atp3
a(g1
(lp4
F2.709276243261379
aF2.689767166300852
aF2.601125228214057
aF2.228039637675429
aF4.356608694461032
aF0.059906245382275444
aF4.187498085506567
aF2.2875791423625664e-06
atp5
a(g1
(lp6
F2.679225340976603
aF2.6581167238189614
aF2.5626963933510205
aF2.169853759721088
aF4.324056906398716
aF0.0396226543418244
aF4.211043555284115
aF6.788941693154495e-07
atp7
a(g1
(lp8
F2.781511493985884
aF2.766526849586318
aF2.69803004588592
aF2.4017535736067317
aF4.217495726588883
aF0.3079831699715123
aF3.516574145910301
aF0.0010334036239592922
atp9
a(g1
(lp10
F0.0
aF0.0
aF0.0
aF0.0
aF0.0
aF0.0
aF0.0
aF0.0
atp11
a.