(lp0
(VC
p1
(lp2
F0.0006648673770871652
aF0.0005575450453200622
aF0.00024626788393563085
aF5.549490618646912e-06
aF3.3080968556920287e-09
aF6.587001743706243e-10
aF1.9186374966320303e-09
aF3.0159988764756787e-12
atp3
a(g1
(lp4
F1.8499124985511308
aF1.8396415131761064
aF1.7927200986709892
aF1.5903258707688115
aF1.6083635480498693
aF0.0013198485225588577
aF1.604410492136348
aF7.275703109909212e-13
atp5
a(g1
(lp6
F1.8539415515849709
aF1.8437849272679854
aF1.797552002189919
aF1.5989803544724803
aF1.6095381524464396
aF0.00014524809278527274
aF1.609102486959913
aF1.9845879910418385e-13
atp7
a(g1
(lp8
F1.87095016044386
aF1.8620409441112273
aF1.8212414804326265
aF1.6432771313796555
aF1.590657281699693
aF0.019026118839531987
aF1.534917632564646
aF3.141807180940638e-08
atp9
a(g1
(lp10
F0.0
aF0.0
aF0.0
aF0.0
aF0.0
aF0.0
aF0.0
aF0.0
atp11
a.