(lp0
(VC
p1
(lp2
F2.2959367020650627
aF2.2522844125046673
aF2.0692883542899243
aF1.4846033171558888
aF2.722086725831262
aF0.2462410662327212
aF2.1051792267022167
aF0.00018997322336790015
atp3
a(g1
(lp4
F2.6093250726967936
aF2.5842821071501785
aF2.471853757947477
aF2.0227588868142914
aF2.9400021844581277
aF0.5267897526340977
aF1.946486160709112
aF0.00973851198414638
atp5
a(g1
(lp6
F2.226726884581788
aF2.185144110670523
aF2.005826816817984
aF1.3974583267237266
aF2.6866025509021436
aF0.2260637768715928
aF2.140981380162383
aF0.0004692874462180445
atp7
a(g1
(lp8
F2.6796762703337187
aF2.652074843855414
aF2.5342385269359275
aF2.106064298824979
aF2.6754323374151423
aF0.8232891122090883
aF1.665773777435203
aF0.06941711764447672
atp9
a(g1
(lp10
F0.06890166114627017
aF0.05986515714505474
aF0.031173412761893442
aF0.0015083923339962691
aF0.0019913388686108053
aF0.00035277545181604063
aF0.0012207994330117266
aF1.2024224132418205e-06
atp11
a.