(lp0
(VC
p1
(lp2
F0.021372374705620586
aF0.018276675475384748
aF0.008843221640305142
aF0.0003061599769088999
aF0.00014831729730046595
aF2.5559902555087356e-05
aF9.205328663840238e-05
aF8.119118166564883e-08
atp3
a(g1
(lp4
F1.832194242956128
aF1.8207929577517792
aF1.768812730202688
aF1.5466479021993695
aF1.5123283503752623
aF0.007884102361037723
aF1.4889205266324808
aF1.0997555430476755e-09
atp5
a(g1
(lp6
F1.8346408542300763
aF1.822179049154283
aF1.7667405630996171
aF1.5390413860674514
aF1.5159466185030663
aF0.00443971143308944
aF1.5027055196648158
aF1.5622802392159474e-10
atp7
a(g1
(lp8
F1.8217540977589195
aF1.8064576408295376
aF1.7401948858347964
aF1.4828902865486606
aF1.5157214701675081
aF0.004664859768647454
aF1.501820806223293
aF1.4215005310267811e-08
atp9
a(g1
(lp10
F0.0
aF0.0
aF0.0
aF0.0
aF0.0
aF0.0
aF0.0
aF0.0
atp11
a.