(lp0
(VC
p1
(lp2
F0.0
aF0.0
aF0.0
aF0.0
aF0.0
aF0.0
aF0.0
aF0.0
atp3
a(g1
(lp4
F1.8521220958351188
aF1.8419916799252238
aF1.7956988609831637
aF1.595750269567565
aF1.6115596415663582
aF0.0007014241380028036
aF1.6094571995747924
aF5.775860949402937e-14
atp5
a(g1
(lp6
F1.8549579499831004
aF1.8450136920468205
aF1.799560916343251
aF1.6030268034320336
aF1.6122297606321887
aF3.1305072172198806e-05
aF1.612135849062705
aF2.291673476435554e-19
atp7
a(g1
(lp8
F1.8700089424156814
aF1.8610385083642114
aF1.8199618519304295
aF1.6408634034452385
aF1.5974288803503105
aF0.014832185354050545
aF1.553746017273969
aF1.1548204801013549e-08
atp9
a(g1
(lp10
F0.0
aF0.0
aF0.0
aF0.0
aF0.0
aF0.0
aF0.0
aF0.0
atp11
a.