(lp0
(VC
p1
(lp2
F3.718494059760948
aF3.699159910092355
aF3.610744721644541
aF3.2275836451981883
aF9.219173018854011
aF0.24928395412591128
aF8.661704009824446
aF0.0008763884729622616
atp3
a(g1
(lp4
F3.6042751620825046
aF3.5781721420534334
aF3.4600788837619523
aF2.9717974224670742
aF8.913513817522084
aF0.16558783941665023
aF8.460272868826038
aF2.527252109639952e-05
atp5
a(g1
(lp6
F3.7339540106748554
aF3.7156340495367823
aF3.631794576819884
aF3.2672164867470164
aF9.055519208563934
aF0.45969636594892005
aF8.271964295693584
aF0.009963033634314585
atp7
a(g1
(lp8
F3.6904055428842506
aF3.6692445626287196
aF3.5726077026118874
aF3.156450842891949
aF9.160264398426504
aF0.21355673530572938
aF8.672705195901264
aF0.0005622182488718761
atp9
a(g1
(lp10
F3.597524907106986
aF3.5709974996713125
aF3.45101333259542
aF2.9555106684331545
aF8.87980303537047
aF0.1758297038119097
aF8.39402797844736
aF1.711370150292488e-05
atp11
a.