(lp0
(VC
p1
(lp2
F2.2125755424890863
aF2.1681774725666263
aF1.9811072008643906
aF1.3858267213511033
aF2.500911760470451
aF0.21589603128229276
aF1.9626824018759155
aF0.00019637240684717132
atp3
a(g1
(lp4
F2.522311462248789
aF2.492784120268873
aF2.3614089884186327
aF1.8560707344060687
aF2.739444484168093
aF0.44481887931401126
aF1.8152000526945395
aF0.004132237185104134
atp5
a(g1
(lp6
F2.2181299432764567
aF2.1768112815090936
aF1.9993140893340078
aF1.4062766438810606
aF2.596503071349283
aF0.16214744745936294
aF2.224724293552735
aF0.0005410644600590265
atp7
a(g1
(lp8
F2.598680175570408
aF2.5702575440989732
aF2.4459098533920787
aF1.9739138472379958
aF2.4253449124775406
aF0.8170717568900221
aF1.4461914532387095
aF0.07664705787868145
atp9
a(g1
(lp10
F0.03151697061321912
aF0.027034443752489465
aF0.013263881001030597
aF0.0004869178409745607
aF0.0004165464184589199
aF7.714254275648299e-05
aF0.0002502034932975736
aF2.9431713671980086e-07
atp11
a.