(lp0
(VC
p1
(lp2
F0.015881899329737565
aF0.013529742024297922
aF0.006430681977667394
aF0.00020444855346134038
aF8.764412218331479e-05
aF1.5224034965028726e-05
aF5.420611767445386e-05
aF4.934875629993313e-08
atp3
a(g1
(lp4
F1.8244978752015668
aF1.812600554926299
aF1.7583937875689033
aF1.5274062293287263
aF1.506680543193367
aF0.004177257767715491
aF1.4942179385763747
aF8.828650550247304e-11
atp5
a(g1
(lp6
F1.8278303782562737
aF1.8151310894134305
aF1.7584152866853482
aF1.5242243349784643
aF1.5078355836784503
aF0.0031250854397807098
aF1.4984995023051704
aF1.0321357341928789e-10
atp7
a(g1
(lp8
F1.8190774355542132
aF1.8044960007022839
aF1.7406403014204377
aF1.4871657738491195
aF1.509827689400066
aF0.0011329797181649705
aF1.5064378663649634
aF5.0758733842042504e-09
atp9
a(g1
(lp10
F0.0
aF0.0
aF0.0
aF0.0
aF0.0
aF0.0
aF0.0
aF0.0
atp11
a.