(lp0
(VC
p1
(lp2
F0.31674911069850475
aF0.2845552971047169
aF0.17340045620054456
aF0.01811422942757645
aF0.04930424043323592
aF0.009210613183192858
aF0.029542004575841992
aF3.7685210965944024e-05
atp3
a(g1
(lp4
F1.909228267484847
aF1.8946327492635215
aF1.8352219599153812
aF1.6335964872799027
aF1.6472147333044649
aF0.0028753207215220103
aF1.638777692997517
aF6.224222377312579e-08
atp5
a(g1
(lp6
F1.9750905854644807
aF1.9542500822626097
aF1.8721488816012248
aF1.6340721999788417
aF1.668074322778702
aF0.0036383630839933933
aF1.6599119308259707
aF3.113930206252999e-05
atp7
a(g1
(lp8
F2.0265781887029495
aF2.0018694860539603
aF1.904308982324518
aF1.6324451811729266
aF1.665070387945891
aF0.0111648130475793
aF1.6473106472084238
aF0.0005337666823464498
atp9
a(g1
(lp10
F0.0
aF0.0
aF0.0
aF0.0
aF0.0
aF0.0
aF0.0
aF0.0
atp11
a.