(lp0
(VC
p1
(lp2
F2.6681960294935836
aF2.646410371695375
aF2.5479892696219872
aF2.1439007113194974
aF4.33283897309051
aF0.05970226182041684
aF4.1622932949342
aF1.1029065159585585e-06
atp3
a(g1
(lp4
F2.7779847450015493
aF2.7627683930761813
aF2.6932257773126675
aF2.392694614796763
aF4.335498297570098
aF0.23837850182113623
aF3.8092294538547415
aF0.0008503240728142199
atp5
a(g1
(lp6
F2.668602904173983
aF2.6468479383473573
aF2.5485703568861853
aF2.1451597792795356
aF4.335119619194985
aF0.05802441992853804
aF4.168618762499504
aF7.50483441180141e-07
atp7
a(g1
(lp8
F2.7502326781031172
aF2.7332365894729733
aF2.655716755504329
aF2.323792523857501
aF4.407855919639415
aF0.12423353648712344
aF4.097252490293414
aF8.682687952270792e-05
atp9
a(g1
(lp10
F0.0
aF0.0
aF0.0
aF0.0
aF0.0
aF0.0
aF0.0
aF0.0
atp11
a.