(lp0
(VC
p1
(lp2
F0.7312350830007097
aF0.6747551314333617
aF0.4648761647143125
aF0.08340758414342545
aF0.29448314267376224
aF0.04466429357410501
aF0.192901945279507
aF0.00010465862214108365
atp3
a(g1
(lp4
F2.059465377778615
aF2.0326530352425936
aF1.9261528748404226
aF1.630742825750754
aF1.7732530195870233
aF0.015826821672370227
aF1.726683539715013
aF1.714084917717624e-08
atp5
a(g1
(lp6
F2.0815432964135026
aF2.051595119240691
aF1.9310611710060384
aF1.5887427658481337
aF1.797107644190176
aF0.012596293689687276
aF1.7645770539397372
aF8.55667032536649e-06
atp7
a(g1
(lp8
F2.132470363803782
aF2.10145330725046
aF1.9756663014565694
aF1.616064845878627
aF1.7966944265627387
aF0.03095320717463033
aF1.727445827717904
aF0.00010868147649712921
atp9
a(g1
(lp10
F0.0
aF0.0
aF0.0
aF0.0
aF0.0
aF0.0
aF0.0
aF0.0
atp11
a.