(lp0
(VC
p1
(lp2
F2.148251077200504
aF2.1029744579709377
aF1.9114118626970042
aF1.3043420840748596
aF2.325586354942186
aF0.2520329250371379
aF1.7208703077390906
aF0.00038479040476341905
atp3
a(g1
(lp4
F2.4750155806019842
aF2.4438892901734883
aF2.306762874986143
aF1.8002366887564236
aF2.638142314318042
aF0.41995686631258133
aF1.7313378706104756
aF0.0024896100401545084
atp5
a(g1
(lp6
F2.2584245318324108
aF2.219503719948708
aF2.0525642574789407
aF1.4980997281056858
aF2.6147741366587383
aF0.14528083348733234
aF2.3050553314076327
aF0.0007009244397642601
atp7
a(g1
(lp8
F2.5693415897098655
aF2.541640843462205
aF2.4179490912980883
aF1.9315454126692029
aF2.231143297647891
aF0.9226864029016134
aF1.238111597092158
aF0.11262731301599953
atp9
a(g1
(lp10
F0.008753640532871122
aF0.007427945011130607
aF0.0034667253151498233
aF0.00010129461967204216
aF1.8369467287170594e-05
aF3.470732643283099e-06
aF1.0929905797990687e-05
aF1.3928835611736445e-08
atp11
a.