(lp0
(VC
p1
(lp2
F0.08102488196800162
aF0.07065748118142809
aF0.037431387842536024
aF0.001967713847781261
aF0.0026870141050124533
aF0.00048454501020571926
aF0.0016340349927429334
aF1.7278978742865787e-06
atp3
a(g1
(lp4
F1.8450250059356006
aF1.8344460826906617
aF1.7861515113894018
aF1.578488115949841
aF1.5845445853168665
aF1.8734148748983594e-06
aF1.5845389650855317
aF3.0961423886956458e-24
atp5
a(g1
(lp6
F1.8714720171269572
aF1.8559751869810572
aF1.7914469559463417
aF1.56061805667336
aF1.5853469958705495
aF0.002371021976410282
aF1.578269556900861
aF2.3364115076854094e-09
atp7
a(g1
(lp8
F1.9090395269503082
aF1.8936051528529658
aF1.830966318518652
aF1.621149556417678
aF1.5691533942265867
aF0.01856462362037279
aF1.5148536772762211
aF2.1463258147500904e-07
atp9
a(g1
(lp10
F0.0
aF0.0
aF0.0
aF0.0
aF0.0
aF0.0
aF0.0
aF0.0
atp11
a.