(lp0
(VC
p1
(lp2
F2.219841517464828
aF2.175487864289908
aF1.988725943219966
aF1.3943379011531893
aF2.521320435188059
aF0.214041331751478
aF1.9860673137547558
aF0.0001855229957403834
atp3
a(g1
(lp4
F2.5294412392010495
aF2.5002235622713163
aF2.370084953982594
aF1.867251941145123
aF2.757021835761798
aF0.447475416289727
aF1.8329526946108023
aF0.0044259018452933625
atp5
a(g1
(lp6
F2.214565635592708
aF2.173026220663386
aF1.9945469583201687
aF1.3977650946990217
aF2.5969816379298383
aF0.16584314223589117
aF2.2134983294011423
aF0.0005242541649791481
atp7
a(g1
(lp8
F2.6048630842019094
aF2.5763783341689224
aF2.452110299453526
aF1.9827197078271852
aF2.4521785207700733
aF0.8068780016395525
aF1.4760171914468667
aF0.07385831451612046
atp9
a(g1
(lp10
F0.035272083885714484
aF0.030302095182096082
aF0.014973545603430501
aF0.0005680656829239735
aF0.0005237833480572722
aF9.650790921611829e-05
aF0.00031536955797600434
aF3.634667167471112e-07
atp11
a.