(lp0
(VC
p1
(lp2
F2.1823430586489145
aF2.1376017124440336
aF1.9486038936861352
aF1.3476469518332326
aF2.4180363791841293
aF0.23306152046414072
aF1.8473010221016468
aF0.00027218674461101916
atp3
a(g1
(lp4
F2.4983414174450855
aF2.4679708971141667
aF2.3335138979234094
aF1.826749306755811
aF2.680995819260794
aF0.44058263156062266
aF1.750222714759854
aF0.003331231304055691
atp5
a(g1
(lp6
F2.242355203873734
aF2.2024059819863844
aF2.0308888625698946
aF1.4591528799365219
aF2.6153430203741848
aF0.15106007945148348
aF2.2813463528075073
aF0.0006115862729349994
atp7
a(g1
(lp8
F2.580955322552004
aF2.552962787418108
aF2.4290961107304003
aF1.9493778869571616
aF2.324307525544387
aF0.8730815190942541
aF1.325808072184603
aF0.0918512329396852
atp9
a(g1
(lp10
F0.01827800753512343
aF0.015583867251085098
aF0.0074349267223500414
aF0.0002401589807780362
aF0.0001301028774350231
aF2.4428938922196567e-05
aF7.764149322174372e-05
aF9.650830472407605e-08
atp11
a.