(lp0
(VC
p1
(lp2
F0.0
aF0.0
aF0.0
aF0.0
aF0.0
aF0.0
aF0.0
aF0.0
atp3
a(g1
(lp4
F1.8355741950942548
aF1.8243746202089355
aF1.773279222994732
aF1.5542329962306292
aF1.5373218202593415
aF0.0037776418209662286
aF1.5260443640444668
aF5.564051026972452e-11
atp5
a(g1
(lp6
F1.8267216054149773
aF1.8149596891497843
aF1.761350663885941
aF1.5325436055248038
aF1.5410894431917164
aF1.0018888591465305e-05
aF1.5410593869167446
aF2.7528730414081226e-21
atp7
a(g1
(lp8
F1.8298835610441113
aF1.8183234585713024
aF1.7656177632470262
aF1.540341787857326
aF1.5405596896522604
aF0.0005397724280471458
aF1.5389415064399516
aF2.31926716932492e-14
atp9
a(g1
(lp10
F0.0
aF0.0
aF0.0
aF0.0
aF0.0
aF0.0
aF0.0
aF0.0
atp11
a.