(lp0
(VC
p1
(lp2
F1.9029961528455717
aF1.847879447803784
aF1.614556530698538
aF0.8903204172118757
aF1.9600933018639728
aF0.2599478463449644
aF1.357443180686591
aF0.0005783433775345618
atp3
a(g1
(lp4
F2.618036625812233
aF2.593623172992983
aF2.4840821528886172
aF2.047231954910393
aF2.4973712368178065
aF0.6861513195121036
aF1.7616457333059308
aF0.06862375587000617
atp5
a(g1
(lp6
F2.3678187062970304
aF2.3350195424485305
aF2.19440831592962
aF1.7237506709310448
aF2.824255375582016
aF0.09091458388076794
aF2.6034466731115327
aF0.00010992683798989707
atp7
a(g1
(lp8
F2.4191861889955777
aF2.3873855298239475
aF2.2495963660323186
aF1.7705379772340955
aF2.9126900520958996
aF0.07660092945728875
aF2.7081549714687068
aF1.772402846104845e-05
atp9
a(g1
(lp10
F0.0
aF0.0
aF0.0
aF0.0
aF0.0
aF0.0
aF0.0
aF0.0
atp11
a.