(lp0
(VC
p1
(lp2
F0.0
aF0.0
aF0.0
aF0.0
aF0.0
aF0.0
aF0.0
aF0.0
atp3
a(g1
(lp4
F1.8352026061411635
aF1.82399499903592
aF1.772883898869734
aF1.5541593908991325
aF1.5087725246347234
aF0.011635023562165486
aF1.4743989606090036
aF5.214215993169955e-09
atp5
a(g1
(lp6
F1.828449866798651
aF1.8168226689395002
aF1.7638479265538574
aF1.5381078276286524
aF1.516742888461546
aF0.0036646597353428
aF1.5058018220317615
aF5.131621013518116e-11
atp7
a(g1
(lp8
F1.8039497198777976
aF1.790759311929484
aF1.7307880487732197
aF1.4777049622600777
aF1.5138124037633385
aF0.0065951444335504246
aF1.4941981230604455
aF5.382910921785125e-10
atp9
a(g1
(lp10
F0.0
aF0.0
aF0.0
aF0.0
aF0.0
aF0.0
aF0.0
aF0.0
atp11
a.