(lp0
(VC
p1
(lp2
F0.000372671900980385
aF0.00031205399716955647
aF0.00013689186663001776
aF2.9879636750595393e-06
aF0.0
aF0.0
aF0.0
aF0.0
atp3
a(g1
(lp4
F1.8533867459085451
aF1.8433416813652386
aF1.7974369999785083
aF1.5991231129210337
aF1.6161296544180948
aF0.0012040537921854243
aF1.612522868652526
aF4.96803497928732e-13
atp5
a(g1
(lp6
F1.8557740308075796
aF1.8458010540166918
aF1.8003206469272732
aF1.6043210134753245
aF1.6169373589527145
aF0.0003963492575656409
aF1.615748893868932
aF5.833286157030306e-15
atp7
a(g1
(lp8
F1.8743368968845981
aF1.8656509557991527
aF1.8258585881917213
aF1.6519901847702363
aF1.5965007486564986
aF0.020832959553781553
aF1.535598190585303
aF4.452510664726199e-08
atp9
a(g1
(lp10
F0.0
aF0.0
aF0.0
aF0.0
aF0.0
aF0.0
aF0.0
aF0.0
atp11
a.