(lp0
(VC
p1
(lp2
F2.8752544647708187
aF2.8209352212563026
aF2.5906978026194194
aF1.850363983253506
aF4.574802585540699
aF0.16446951392262826
aF4.126237828858774
aF3.4223137947036485e-05
atp3
a(g1
(lp4
F3.369952239034556
aF3.331149513858953
aF3.1586447540678324
aF2.497148228843068
aF4.581865512306319
aF1.1028153549639284
aF2.9075040217825543
aF0.047335964427274516
atp5
a(g1
(lp6
F2.7836173984188495
aF2.7217956837460173
aF2.4582372792502003
aF1.6043961188261324
aF4.311512961358552
aF0.2373240703366904
aF3.7078060582092256
aF0.00017072801021669298
atp7
a(g1
(lp8
F3.2262534060933787
aF3.1817915309076064
aF2.987445397788947
aF2.2935471308509103
aF4.8105119340071845
aF0.6154147492990144
aF3.7115686040038165
aF0.03165863601464031
atp9
a(g1
(lp10
F2.2215364756474485
aF2.141890066519964
aF1.812119203569813
aF0.8728277808098378
aF2.886519591697895
aF0.2771204918104995
aF2.225063310263036
aF0.0005197228960112836
atp11
a.