(lp0
(VC
p1
(lp2
F0.430612509073523
aF0.390751333224826
aF0.2495293948346055
aF0.03249938246139143
aF0.09215392685726431
aF0.015134577406617347
aF0.058449348921133924
aF4.396882916800185e-05
atp3
a(g1
(lp4
F1.862710329040148
aF1.841698288862709
aF1.7556851167250527
aF1.469107279547172
aF1.5333332406936113
aF0.0017726136856479806
aF1.528138047963465
aF1.558077010933017e-08
atp5
a(g1
(lp6
F1.9649019970621442
aF1.9376591907204963
aF1.8285056714288723
aF1.5069290704054863
aF1.5669622244454402
aF0.005326409894424629
aF1.5548421737333173
aF2.9071216029778545e-05
atp7
a(g1
(lp8
F2.033964054715083
aF2.0039962306966275
aF1.883428723571842
aF1.536166720921381
aF1.555400628990268
aF0.024354197451570938
aF1.5040158902331522
aF0.00047581067994526195
atp9
a(g1
(lp10
F0.0
aF0.0
aF0.0
aF0.0
aF0.0
aF0.0
aF0.0
aF0.0
atp11
a.