(lp0
(VC
p1
(lp2
F3.7107420617247184
aF3.690917923911035
aF3.600315725806614
aF3.2087235337339677
aF9.163850531223845
aF0.23676641912233193
aF8.600754134384758
aF0.0004969656978208138
atp3
a(g1
(lp4
F3.5979621691343517
aF3.571482714258786
aF3.451734824614272
aF2.9575003581848347
aF8.856367373866076
aF0.16191994002922078
aF8.415901549349266
aF3.29157000649238e-05
atp5
a(g1
(lp6
F3.728678354515523
aF3.7100286506393774
aF3.6247223415947385
aF3.254584604149316
aF8.942527243408662
aF0.5108503644251582
aF8.090144171601413
aF0.013207747186533331
atp7
a(g1
(lp8
F3.674705650917828
aF3.652545602990024
aF3.5514407155156036
aF3.1178914285293793
aF9.079587885399274
aF0.1998683065335872
aF8.597531017162954
aF0.0003238516602209968
atp9
a(g1
(lp10
F3.582033321405421
aF3.554547029191621
aF3.43030545496089
aF2.9187559641405443
aF8.778164809940119
aF0.18523050454321768
aF8.268176200361488
aF2.4192082103166108e-05
atp11
a.