(lp0
(VC
p1
(lp2
F0.0012100767212751046
aF0.0010155326817262035
aF0.00045018824448183584
aF1.0322915440035627e-05
aF3.392983923746132e-07
aF6.654543871111017e-08
aF1.9826696597450525e-07
aF2.933569105723551e-10
atp3
a(g1
(lp4
F1.8444332587611851
aF1.833807260467313
aF1.7852898285980716
aF1.5765230213139545
aF1.5939620557413918
aF0.0009137987342604991
aF1.5912237997549932
aF1.7187850173489997e-13
atp5
a(g1
(lp6
F1.8493922699498895
aF1.838861526964831
aF1.7910324132054
aF1.5865832341561301
aF1.594869196844222
aF7.063475261526956e-06
aF1.5948480199571968
aF1.3512515563561841e-11
atp7
a(g1
(lp8
F1.8640273920579067
aF1.854620519603318
aF1.8116283829647055
aF1.6250803519109276
aF1.579967730513831
aF0.014908529805652524
aF1.5360731136944537
aF1.2178823081905796e-08
atp9
a(g1
(lp10
F0.0
aF0.0
aF0.0
aF0.0
aF0.0
aF0.0
aF0.0
aF0.0
atp11
a.