(lp0
(VC
p1
(lp2
F2.289923806400666
aF2.250106131304086
aF2.0771526525754953
aF1.477254182794257
aF2.818414184369742
aF0.24132962810389816
aF2.2320259034768584
aF0.0003663070869384996
atp3
a(g1
(lp4
F2.5628130717390745
aF2.535597661338668
aF2.4142890619877866
aF1.943903428682543
aF3.0438450078844532
aF0.41602135270796636
aF2.0732620682068545
aF0.0007353078181644962
atp5
a(g1
(lp6
F2.318305504680056
aF2.279373474022382
aF2.1094004603175467
aF1.5054787762417003
aF2.9753849902376617
aF0.13935478826255987
aF2.6154320273269995
aF7.781882878754258e-05
atp7
a(g1
(lp8
F2.6529673211403457
aF2.6305000493449264
aF2.5293592605961157
aF2.1202529891075517
aF2.6174933611347497
aF0.9391754940317449
aF1.6029200775936254
aF0.09497171078446302
atp9
a(g1
(lp10
F0.0
aF0.0
aF0.0
aF0.0
aF0.0
aF0.0
aF0.0
aF0.0
atp11
a.