(lp0
(VC
p1
(lp2
F2.3680623294561016
aF2.320256253769518
aF2.120508541339705
aF1.4812194677474202
aF2.9785001066378594
aF0.15896079212081657
aF2.5628459400883643
aF7.668126566850753e-05
atp3
a(g1
(lp4
F2.6308428777473294
aF2.6000630915472365
aF2.4687777062027045
aF1.9980893103023925
aF3.2009070811067475
aF0.36291091349894106
aF2.410595133510285
aF0.0022817945833376752
atp5
a(g1
(lp6
F2.4008673453805964
aF2.364180897069658
aF2.206440771132567
aF1.660046569952931
aF3.159793077395989
aF0.09700915221791072
aF2.9092950974093017
aF5.157150112946306e-05
atp7
a(g1
(lp8
F2.7770947889963136
aF2.738362665384662
aF2.5777669014783138
aF2.05387007928799
aF3.0964568988564283
aF0.5296464015899925
aF2.110666311321463
aF0.008768980798816965
atp9
a(g1
(lp10
F0.2704471421744499
aF0.24116866827213013
aF0.1422303931989017
aF0.013162681034397408
aF0.03522737450293467
aF0.005596927202808761
aF0.022707893822991567
aF1.5909513148124937e-05
atp11
a.