(lp0
(VC
p1
(lp2
F2.093965670310565
aF2.0482057656720993
aF1.8546986387955537
aF1.2494397652153626
aF2.1618923641533696
aF0.2496091342937481
aF1.578371889044964
aF0.0006220563150903307
atp3
a(g1
(lp4
F2.4182304441709706
aF2.3841331291906993
aF2.2343120576646793
aF1.68679554329694
aF2.560872317496143
aF0.3153185210688856
aF1.8284630475246697
aF0.0008339171068531338
atp5
a(g1
(lp6
F2.196218533067046
aF2.1547079098495936
aF1.9771428136261635
aF1.3924838556052372
aF2.429970676523292
aF0.14681023128700355
aF2.134390370077117
aF0.0010165234065249882
atp7
a(g1
(lp8
F2.545644349832509
aF2.5169835703547374
aF2.3888703299263847
aF1.8870910343483542
aF2.0758044746922826
aF0.9179072136451271
aF1.2392136928689037
aF0.15899028911005128
atp9
a(g1
(lp10
F0.0018699025505683371
aF0.0015744876127259694
aF0.0007087721865094169
aF1.744137610377825e-05
aF0.0
aF0.0
aF0.0
aF0.0
atp11
a.