(lp0
(VC
p1
(lp2
F2.079796408568849
aF2.034096227583592
aF1.8408761659214476
aF1.2398488593235062
aF2.098888660773854
aF0.25798331049268747
aF1.5069991079416123
aF0.00083174398208088
atp3
a(g1
(lp4
F2.388852938707842
aF2.3532608189137125
aF2.1971040217114375
aF1.6300014601856232
aF2.511944142625098
aF0.28557053651474035
aF1.834999529578272
aF0.0005246279507601617
atp5
a(g1
(lp6
F2.1706525197095994
aF2.1278930529640276
aF1.945040964562839
aF1.3437801078555065
aF2.3555673185924557
aF0.1504596010795405
aF2.0605972505314263
aF0.0012197917287042237
atp7
a(g1
(lp8
F2.537024323931045
aF2.507959814225064
aF2.378201070676998
aF1.8726573632470358
aF1.977299871627714
aF0.9515964272449716
aF1.2028650772033163
aF0.1919375579037963
atp9
a(g1
(lp10
F0.00011824893623565482
aF9.881874986335068e-05
aF4.2952742369222e-05
aF8.983366816979479e-07
aF0.0
aF0.0
aF0.0
aF0.0
atp11
a.