(lp0
(VC
p1
(lp2
F0.018566311312522454
aF0.015847299017614037
aF0.007600804777815353
aF0.00025233818861946744
aF0.00011551481590748005
aF1.9962868253351706e-05
aF7.160567920396434e-05
aF6.386875782156287e-08
atp3
a(g1
(lp4
F1.8278548955973242
aF1.816173828989389
aF1.762937595437165
aF1.5357924635818319
aF1.5083257003668649
aF0.005879667553267965
aF1.4908233281267187
aF3.4423635908770205e-10
atp5
a(g1
(lp6
F1.8307411997322718
aF1.8181301480998604
aF1.7619149291775411
aF1.530411168378186
aF1.5105556572414187
aF0.0037851883628744138
aF1.4992571977275362
aF1.1890945852399606e-10
atp7
a(g1
(lp8
F1.8197116011488164
aF1.804736029081424
aF1.7395128479978472
aF1.4834696835968078
aF1.5117156931904268
aF0.002625152413866582
aF1.503873365208408
aF8.627270660844448e-09
atp9
a(g1
(lp10
F0.0
aF0.0
aF0.0
aF0.0
aF0.0
aF0.0
aF0.0
aF0.0
atp11
a.