(lp0
(VC
p1
(lp2
F3.398784582074004
aF3.360884164016731
aF3.191471235943272
aF2.5275892675761944
aF7.1656442164644645
aF0.127439359460966
aF6.821634469098901
aF3.269261249224422e-05
atp3
a(g1
(lp4
F3.411723396080242
aF3.3744639531183225
aF3.20769851917538
aF2.5502422966310823
aF7.158008661763509
aF0.17137519578162552
aF6.705747394006031
aF8.071181844118578e-05
atp5
a(g1
(lp6
F3.384325573522646
aF3.3451558661664973
aF3.1697190121559746
aF2.4772253032248623
aF7.037322834689416
aF0.1973272087127409
aF6.514339091505326
aF7.107545493051995e-05
atp7
a(g1
(lp8
F3.4304794815384816
aF3.394069881669977
aF3.2307636812128147
aF2.5817122570609756
aF7.120012974192628
aF0.243801237378638
aF6.499730617823465
aF0.00021251237480545375
atp9
a(g1
(lp10
F3.186583442137322
aF3.1368990128167358
aF2.916743621217564
aF2.0884768069260193
aF6.518276411582159
aF0.15612888365489708
aF6.080082212955687
aF8.984898401621201e-06
atp11
a.