(lp0
(VC
p1
(lp2
F0.0
aF0.0
aF0.0
aF0.0
aF0.0
aF0.0
aF0.0
aF0.0
atp3
a(g1
(lp4
F1.828206813174112
aF1.8165383837323312
aF1.7633461344634844
aF1.5361367310055454
aF1.5470977213941712
aF9.242290182253513e-06
aF1.5470699948548987
aF1.970413513623936e-21
atp5
a(g1
(lp6
F1.8369694226720494
aF1.8258596568635808
aF1.7751672307844524
aF1.5577147933686333
aF1.5440978862479557
aF0.003009077436398025
aF1.5351057238300665
aF2.2139735785844946e-11
atp7
a(g1
(lp8
F1.8342563101028548
aF1.8229744413900435
aF1.7715130407082753
aF1.5510804975096635
aF1.5457950346481348
aF0.0013119290362186035
aF1.5418659187717647
aF7.999822553944573e-13
atp9
a(g1
(lp10
F0.0
aF0.0
aF0.0
aF0.0
aF0.0
aF0.0
aF0.0
aF0.0
atp11
a.