(lp0
(VC
p1
(lp2
F0.003341443369461394
aF0.0028121171598019133
aF0.0012629219943434242
aF3.07415063986361e-05
aF4.68405527840429e-06
aF8.831514517087765e-07
aF2.789818830757965e-06
aF3.525564813791033e-09
atp3
a(g1
(lp4
F1.8325563589920644
aF1.8211663701814014
aF1.7692215031874208
aF1.546908190547366
aF1.558951847475033
aF5.6423439914540415e-05
aF1.558782589407416
aF2.6748102680275134e-18
atp5
a(g1
(lp6
F1.8378898272456694
aF1.8264330131295545
aF1.7746418005486788
aF1.5556287139445093
aF1.5587784062697199
aF0.00023543185195795205
aF1.5580724399541728
aF7.34773325954114e-11
atp7
a(g1
(lp8
F1.8466918903642047
aF1.8358708438930744
aF1.7868426642698347
aF1.578107016750641
aF1.5525302457409222
aF0.006483592380755389
aF1.5332408800579544
aF5.103537475746737e-10
atp9
a(g1
(lp10
F0.0
aF0.0
aF0.0
aF0.0
aF0.0
aF0.0
aF0.0
aF0.0
atp11
a.