(lp0
(VC
p1
(lp2
F0.058092117423277925
aF0.0503659857801455
aF0.025977493305069738
aF0.0012105454135573786
aF0.0012926701178248591
aF0.00022425427610451017
aF0.0007999429806996554
aF7.245546129995224e-07
atp3
a(g1
(lp4
F1.8442653182834243
aF1.8336223785320231
aF1.7850209995318305
aF1.575771047575524
aF1.5519315742422595
aF0.005932892482846473
aF1.534268120101431
aF3.2770034398733127e-10
atp5
a(g1
(lp6
F1.8534219331317052
aF1.8391768626399387
aF1.7783918547311914
aF1.547781771525611
aF1.5593406460218515
aF4.074509718418327e-05
aF1.559222519047475
aF3.179933216032452e-10
atp7
a(g1
(lp8
F1.8728151596414468
aF1.8567485443009453
aF1.79012673250578
aF1.554771598809942
aF1.559031773268281
aF0.0003496178507544421
aF1.5580651525099773
aF1.407568848328826e-07
atp9
a(g1
(lp10
F0.0
aF0.0
aF0.0
aF0.0
aF0.0
aF0.0
aF0.0
aF0.0
atp11
a.