(lp0
(VC
p1
(lp2
F0.027423429313144194
aF0.023534108565555895
aF0.011576332049125839
aF0.0004336455851416646
aF0.00023529770911504057
aF4.053482277255838e-05
aF0.00014606102291648998
aF1.286401851561318e-07
atp3
a(g1
(lp4
F1.841920114338863
aF1.8311471847167993
aF1.7819895835240498
aF1.5710535078043384
aF1.5243738397223812
aF0.012314514198336486
aF1.4880192469240163
aF6.337408988845001e-09
atp5
a(g1
(lp6
F1.8436734494993032
aF1.8315467877416274
aF1.7778670211156022
aF1.5588861417153024
aF1.531654503463201
aF0.005309682989404337
aF1.51583559637253
aF2.4609085959981243e-10
atp7
a(g1
(lp8
F1.8293225725166062
aF1.8135768843767068
aF1.746080984027396
aF1.4895360071438573
aF1.5276927979769044
aF0.009271388475700856
aF1.5002278852948534
aF3.577266154940979e-08
atp9
a(g1
(lp10
F0.0
aF0.0
aF0.0
aF0.0
aF0.0
aF0.0
aF0.0
aF0.0
atp11
a.