(lp0
(VC
p1
(lp2
F0.010924048071538395
aF0.009268645783728607
aF0.004323101126326623
aF0.00012565658098841214
aF4.497206206272367e-05
aF7.95120161816492e-06
aF2.7595060455670434e-05
aF2.696442778096827e-08
atp3
a(g1
(lp4
F1.8215800951908907
aF1.8094935472798606
aF1.7544359698566427
aF1.5200513736329608
aF1.511946429392994
aF0.0016792717519086072
aF1.5069197841450972
aF2.2931288057698898e-12
atp5
a(g1
(lp6
F1.8257562274265
aF1.813122208259718
aF1.7564858143692195
aF1.5211755751911
aF1.5117579878501592
aF0.0019206365584245513
aF1.5060110921999186
aF1.0782250266735009e-10
atp7
a(g1
(lp8
F1.822344745382669
aF1.8087725304667641
aF1.748662776447497
aF1.5045179811010003
aF1.5136694462013163
aF9.178207267432849e-06
aF1.513643535185634
aF1.526307691012087e-09
atp9
a(g1
(lp10
F0.0
aF0.0
aF0.0
aF0.0
aF0.0
aF0.0
aF0.0
aF0.0
atp11
a.