(lp0
(VC
p1
(lp2
F3.33889725592802e-05
aF2.786905421002509e-05
aF1.2046101272239709e-05
aF2.454869408949634e-07
aF0.0
aF0.0
aF0.0
aF0.0
atp3
a(g1
(lp4
F1.8515215899238755
aF1.841354481887099
aF1.7948995776524084
aF1.594358787623825
aF1.6048616780006588
aF8.206616582445802e-05
aF1.60461550468024
aF1.0971781011180682e-17
atp5
a(g1
(lp6
F1.8497438237780517
aF1.8394525652459013
aF1.7924468550953674
aF1.5897263716552426
aF1.6044544875885363
aF0.0004892565779470736
aF1.6029876125528038
aF1.386012830352647e-14
atp7
a(g1
(lp8
F1.8672591336115438
aF1.858108263568468
aF1.8162174801902762
aF1.6338117488812656
aF1.590378779313904
aF0.014564964852579094
aF1.5474721653502894
aF1.0885749116049736e-08
atp9
a(g1
(lp10
F0.0
aF0.0
aF0.0
aF0.0
aF0.0
aF0.0
aF0.0
aF0.0
atp11
a.