(lp0
(VC
p1
(lp2
F2.3443836890149394
aF2.301305189750201
aF2.121139440238049
aF1.5458406607839774
aF2.8444080130033758
aF0.2428836332124955
aF2.2293234309501653
aF0.0001532257722202555
atp3
a(g1
(lp4
F2.63049263009192
aF2.6060589741129094
aF2.496749223304594
aF2.0599432790959638
aF3.006838646403023
aF0.5513871471633621
aF1.9715375681248495
aF0.01010842398602593
atp5
a(g1
(lp6
F2.248951338828489
aF2.2079295859155392
aF2.0304893175625764
aF1.4217802945995164
aF2.763843141928084
aF0.23640915764161297
aF2.191011202950099
aF0.0004534262789248423
atp7
a(g1
(lp8
F2.708535944833101
aF2.679935158649056
aF2.559452430629473
aF2.1363811462450606
aF2.753620468487082
aF0.8324880672960311
aF1.702005284696719
aF0.06282834785428167
atp9
a(g1
(lp10
F0.09642531385730124
aF0.08426206505714191
aF0.04508602595982317
aF0.0024952510630587336
aF0.004039333575693723
aF0.0007284714600132663
aF0.0024580767700755094
aF2.6548656222914393e-06
atp11
a.