(lp0
(VC
p1
(lp2
F1.342827900256514
aF1.276558765539802
aF1.0097312781202332
aF0.3431632950098136
aF1.004693912369326
aF0.11503329626898104
aF0.7259180699091783
aF0.00012667883128945133
atp3
a(g1
(lp4
F2.341391974386556
aF2.3082705543390665
aF2.167105596191058
aF1.7039635074964803
aF2.207924354933202
aF0.10880715668087115
aF1.9504813196371213
aF0.00023543596263229016
atp5
a(g1
(lp6
F2.208718745742048
aF2.1740159977099918
aF2.0293132228139266
aF1.5846901911691145
aF2.21210580689518
aF0.004970136081303434
aF2.197590717289434
aF1.3719216057369619e-08
atp7
a(g1
(lp8
F2.2580787605219967
aF2.223433962426192
aF2.0775946951550877
aF1.6172574964709892
aF2.237122122184492
aF0.025075372538802043
aF2.1707414112943395
aF7.203652611475033e-06
atp9
a(g1
(lp10
F0.0
aF0.0
aF0.0
aF0.0
aF0.0
aF0.0
aF0.0
aF0.0
atp11
a.