(lp0
(VC
p1
(lp2
F2.5461328083476418
aF2.4987916559221843
aF2.3018067912381386
aF1.671989289923591
aF3.49498368630931
aF0.1585477798950246
aF3.060629158408836
aF1.4760052956378644e-05
atp3
a(g1
(lp4
F2.8024403700854914
aF2.7632741852012854
aF2.601444579748924
aF2.0849917974606855
aF3.844533309509292
aF0.1774827000169114
aF3.383303659588831
aF0.00013381851851177373
atp5
a(g1
(lp6
F2.5618653689329642
aF2.521796691014332
aF2.3539220069605187
aF1.7942988513376994
aF3.6283509365496927
aF0.09878758785256472
aF3.3686141377740486
aF3.483469172566928e-05
atp7
a(g1
(lp8
F2.9567067254744233
aF2.9192286874837374
aF2.764644477773353
aF2.2805266349001987
aF3.5407707206727217
aF0.6202695860675653
aF2.445984970267113
aF0.010596678527179822
atp9
a(g1
(lp10
F0.6057904363145681
aF0.5502037946850604
aF0.35279740591543796
aF0.04697756163762507
aF0.21047547746151404
aF0.03129991591229684
aF0.13944238937199538
aF7.842371385827069e-05
atp11
a.