(lp0
(VC
p1
(lp2
F2.6777670839412346
aF2.6286004671682863
aF2.42401350405414
aF1.7772105191152756
aF3.9300441501701426
aF0.13496188662355038
aF3.555207275301487
aF9.07998220593197e-06
atp3
a(g1
(lp4
F2.9720651331439822
aF2.9250330143452468
aF2.7265098828742462
aF2.0848568350541945
aF4.318758386176984
aF0.14986166911372764
aF3.942583102284976
aF0.00044139722334677787
atp5
a(g1
(lp6
F2.8125225750619665
aF2.768229207218742
aF2.584528325216466
aF2.0076984784720247
aF4.204046055871791
aF0.09141114350165597
aF3.9569897402387095
aF1.6101590070115823e-05
atp7
a(g1
(lp8
F3.088224764191255
aF3.048458002963703
aF2.881680217163694
aF2.34798059784271
aF4.024496595367038
aF0.6291511713552564
aF2.8552165538030962
aF0.008138650930600424
atp9
a(g1
(lp10
F1.1407191484180836
aF1.0618230671890756
aF0.7627120873346768
aF0.1702198211604372
aF0.7720027057991938
aF0.09891284942507886
aF0.5402686858582636
aF0.00018502928074752987
atp11
a.