(lp0
(VC
p1
(lp2
F2.083064649220941
aF2.037322473912508
aF1.8439093342505704
aF1.2411793811977936
aF2.118104477994555
aF0.25373622818553865
aF1.5324275115874442
aF0.0007627517860811072
atp3
a(g1
(lp4
F2.398768674473222
aF2.3636674229552015
aF2.2095756672851765
aF1.6486226519021019
aF2.5290212889724812
aF0.293216889037022
aF1.8373940552816932
aF0.0005992879518866997
atp5
a(g1
(lp6
F2.1777828770337697
aF2.1354057965911317
aF1.9541974321272013
aF1.358335724206277
aF2.37687866614074
aF0.1491868561450294
aF2.0820381053399046
aF0.0011556510909123037
atp7
a(g1
(lp8
F2.539518391511317
aF2.510561156269346
aF2.3812253294507806
aF1.8763899991960769
aF2.0136173950136262
aF0.9347025029043527
aF1.2202191684033123
aF0.18013687598790232
atp9
a(g1
(lp10
F0.0005808640355609538
aF0.0004869284589866425
aF0.0002147218046159009
aF4.801513701836297e-06
aF0.0
aF0.0
aF0.0
aF0.0
atp11
a.