(lp0
(VC
p1
(lp2
F0.0
aF0.0
aF0.0
aF0.0
aF0.0
aF0.0
aF0.0
aF0.0
atp3
a(g1
(lp4
F1.8619710926283835
aF1.8524751392203687
aF1.8090298151630353
aF1.6203568921540863
aF1.5819632555937249
aF0.011989283481333043
aF1.5465337780554973
aF5.102074061089791e-09
atp5
a(g1
(lp6
F1.844312441539719
aF1.8336766579232182
aF1.7851127206179158
aF1.5761124417454075
aF1.5932008879796935
aF0.0007516510953644439
aF1.5909480607359765
aF7.882047017241848e-14
atp7
a(g1
(lp8
F1.8492196759701292
aF1.8389039505048048
aF1.7917815913935637
aF1.588588666154756
aF1.5939011772879166
aF5.136178714118609e-05
aF1.5937471018564366
aF1.718439904606877e-18
atp9
a(g1
(lp10
F0.0
aF0.0
aF0.0
aF0.0
aF0.0
aF0.0
aF0.0
aF0.0
atp11
a.