(lp0
(VC
p1
(lp2
F3.6917649453874866
aF3.670732521329086
aF3.574725082990359
aF3.162051051279119
aF9.035253669638443
aF0.21863285174233982
aF8.487628995077731
aF0.0002444247400662434
atp3
a(g1
(lp4
F3.5836731453923885
aF3.5563475765291033
aF3.432886837580777
aF2.9253868890869135
aF8.741196047632389
aF0.14983844391689996
aF8.330774370427916
aF2.5375645345089084e-05
atp5
a(g1
(lp6
F3.709589593918203
aF3.6897139129923544
aF3.598909345297116
aF3.207060881598694
aF8.797052771508854
aF0.5067481200065317
aF7.931228224038469
aF0.012135741044929553
atp7
a(g1
(lp8
F3.654090365634423
aF3.630632260640298
aF3.5237398180825417
aF3.06799058499194
aF8.934979017151893
aF0.1926282279652093
aF8.454174908051698
aF0.00021698817605942506
atp9
a(g1
(lp10
F3.5541614719548367
aF3.524973657020261
aF3.3932046205756077
aF2.853736822123358
aF8.603989294361929
aF0.18668988643517972
aF8.088749635729195
aF2.4917600194731926e-05
atp11
a.