(lp0
(VC
p1
(lp2
F2.197136020371069
aF2.1524335596603095
aF1.9586702939367249
aF1.2937886604859319
aF2.630366738885951
aF0.303360532905804
aF1.9329699384857126
aF0.0009531713375943001
atp3
a(g1
(lp4
F2.7045357665050167
aF2.6847552116945974
aF2.5949362006596957
aF2.2179361451118944
aF2.659853172557087
aF0.982882539887168
aF1.7017137065080363
aF0.16050173561870804
atp5
a(g1
(lp6
F2.423093630895036
aF2.390212678133116
aF2.246549154237163
aF1.7316938543515528
aF3.1288031627279063
aF0.164776520094412
aF2.77255200692374
aF0.0006554445359798356
atp7
a(g1
(lp8
F2.5128494548405036
aF2.4832821779120113
aF2.352283444683979
aF1.8567243721439737
aF3.326284781777021
aF0.10601324286428289
aF3.0435338346748724
aF2.4084098839848414e-05
atp9
a(g1
(lp10
F0.0
aF0.0
aF0.0
aF0.0
aF0.0
aF0.0
aF0.0
aF0.0
atp11
a.