(lp0
(VC
p1
(lp2
F2.5757202413144444
aF2.5487522926436283
aF2.4279640573258727
aF1.9506327301369333
aF3.9306935644663525
aF0.12676604538798772
aF3.596168427962227
aF4.4312277069626626e-05
atp3
a(g1
(lp4
F2.7802127154028935
aF2.765143161031943
aF2.6962636383905747
aF2.3984398606310986
aF3.7613328548564526
aF0.6127797562500827
aF2.747649984483907
aF0.019970780309828046
atp5
a(g1
(lp6
F2.6010270289428883
aF2.57554564363978
aF2.4612533160722836
aF2.0064569126536003
aF3.9913080915159735
aF0.10912606221877451
aF3.7102862725250376
aF4.8411781039148315e-05
atp7
a(g1
(lp8
F2.669456775496214
aF2.6475213110102884
aF2.548160968293647
aF2.135763714124236
aF4.128599287399948
aF0.09010035165621609
aF3.879654605237691
aF9.550059667732239e-06
atp9
a(g1
(lp10
F0.0
aF0.0
aF0.0
aF0.0
aF0.0
aF0.0
aF0.0
aF0.0
atp11
a.