(lp0
(VC
p1
(lp2
F2.365998849145927
aF2.3213501107695986
aF2.134978741447923
aF1.54164153495781
aF2.9297640816429746
aF0.16861384719431816
aF2.486472475207148
aF6.082048421163853e-05
atp3
a(g1
(lp4
F2.6127290398064953
aF2.585164863540254
aF2.464084383216105
aF1.997558190134687
aF3.0619752541846412
aF0.451457258552232
aF2.142034990924953
aF0.004913722946108887
atp5
a(g1
(lp6
F2.292051472922883
aF2.2526252075755724
aF2.081555198328986
aF1.4873044443561727
aF2.8931030827392705
aF0.16628148539959253
aF2.4799444554223786
aF0.00022146923959998757
atp7
a(g1
(lp8
F2.7248294132656703
aF2.6905805480487706
aF2.5481376184737092
aF2.071797007894644
aF2.902682844061011
aF0.6485105796609703
aF1.8906822764079527
aF0.02518850431753101
atp9
a(g1
(lp10
F0.16254424530359646
aF0.1435876017254544
aF0.0808971457223267
aF0.0058306081438621905
aF0.011770833708637048
aF0.00207515478381352
aF0.007243662026180476
aF7.288562703830351e-06
atp11
a.