(lp0
(VC
p1
(lp2
F2.0753288453088783
aF2.02944603650813
aF1.835532427522385
aF1.234419100545536
aF2.0706631487692198
aF0.2750490202239775
aF1.437016262862958
aF0.0006921909361473101
atp3
a(g1
(lp4
F2.3734701873272295
aF2.337366589222923
aF2.1793259649597854
aF1.610336723412862
aF2.4848674282880974
aF0.2878687400234341
aF1.8069528282144303
aF0.0005634308939583134
atp5
a(g1
(lp6
F2.1780865911085305
aF2.1353936058784475
aF1.952575036172422
aF1.3485632156607266
aF2.3688764111956075
aF0.14573837107309712
aF2.0784013731388358
aF0.0010416135739756544
atp7
a(g1
(lp8
F2.540288926298655
aF2.511417333185977
aF2.3825059482383013
aF1.880022019646221
aF1.9033725978548484
aF1.01940576846676
aF1.1508620233963454
aF0.2026810896941093
atp9
a(g1
(lp10
F0.0
aF0.0
aF0.0
aF0.0
aF0.0
aF0.0
aF0.0
aF0.0
atp11
a.