(lp0
(VC
p1
(lp2
F2.121269046638896
aF2.075687084920811
aF1.8828555046499331
aF1.2753172983351015
aF2.248588360842221
aF0.25118337663216883
aF1.651821162463105
aF0.00046124490250867465
atp3
a(g1
(lp4
F2.4509631057193753
aF2.4186191168136864
aF2.276335327128596
aF1.7538211515922963
aF2.6080470504695685
aF0.37039561338195315
aF1.7797930880196533
aF0.0015612257125868034
atp5
a(g1
(lp6
F2.234553194376694
aF2.1946985967013997
aF2.0239873457294353
aF1.4594537431252115
aF2.538479399569352
aF0.14480800134428676
aF2.237640863505476
aF0.0008199826549641
atp7
a(g1
(lp8
F2.558165279677783
aF2.5301536182106363
aF2.4047952565331645
aF1.9112045151102561
aF2.164788876519853
aF0.9193355093745578
aF1.2391100419254852
aF0.1310852158493631
atp9
a(g1
(lp10
F0.004596036248687273
aF0.003891163955132525
aF0.0017967261579598579
aF4.976411809393564e-05
aF2.3198882845262093e-07
aF4.4138943843986806e-08
aF1.3757452414387263e-07
aF1.802841227964698e-10
atp11
a.