(lp0
(VC
p1
(lp2
F2.9654440807660785
aF2.912019654827469
aF2.683144196120198
aF1.9220118693953814
aF4.951321989399366
aF0.15434297412593395
aF4.526378678782136
aF1.4530422920144431e-05
atp3
a(g1
(lp4
F3.390859933286869
aF3.3526995109637725
aF3.1823696548092912
aF2.518620067208245
aF4.9560897625366875
aF1.0384927411641343
aF3.3046498238545317
aF0.041013275949062504
atp5
a(g1
(lp6
F2.889642949915712
aF2.829918325046213
aF2.5728337519116344
aF1.71326798375296
aF4.730489100367263
aF0.2090089911611295
aF4.189576405228474
aF0.00011058249222696887
atp7
a(g1
(lp8
F3.231955661355308
aF3.1868615107635088
aF2.9888073641964237
aF2.2683873739879314
aF5.137994342026705
aF0.5250157320045066
aF4.166220726560866
aF0.018334936146426853
atp9
a(g1
(lp10
F2.458877893190125
aF2.383313715510001
aF2.064856760600844
aF1.0928611699203388
aF3.6019079580880775
aF0.2556865239819547
aF2.970119621272608
aF0.0003221106733620677
atp11
a.