(lp0
(VC
p1
(lp2
F2.163231261148767
aF2.1192738385766012
aF1.9312452871351162
aF1.3199784780192005
aF2.369568562391046
aF0.2798277015743714
aF1.7114831568127962
aF0.0005813083333579921
atp3
a(g1
(lp4
F2.454693117152331
aF2.4225623688319273
aF2.281167329800933
aF1.760543905435319
aF2.7001850377091414
aF0.37359788077037226
aF1.8453178892058668
aF0.000993744647652826
atp5
a(g1
(lp6
F2.273697194730559
aF2.234048475650947
aF2.062592646555057
aF1.4751735869423923
aF2.708876403750985
aF0.12274658089581941
aF2.4237580203366633
aF0.00026754103665360956
atp7
a(g1
(lp8
F2.594392752034201
aF2.568437627923741
aF2.45197320146531
aF1.9878969448491444
aF2.1620656496567805
aF1.0557308564607633
aF1.2695244897166145
aF0.1710382843373193
atp9
a(g1
(lp10
F0.0
aF0.0
aF0.0
aF0.0
aF0.0
aF0.0
aF0.0
aF0.0
atp11
a.