(lp0
(VC
p1
(lp2
F0.0
aF0.0
aF0.0
aF0.0
aF0.0
aF0.0
aF0.0
aF0.0
atp3
a(g1
(lp4
F1.839789238752469
aF1.8288606372384135
aF1.7789806561399533
aF1.5647334054839812
aF1.5525890487135008
aF0.0027061626338133436
aF1.5444987798599528
aF1.4255323189331533e-11
atp5
a(g1
(lp6
F1.8307061260235415
aF1.819196233533646
aF1.7667123398229196
aF1.5422480264930158
aF1.5552174788085567
aF7.773253875730238e-05
aF1.554984304501607
aF9.704494176447832e-18
atp7
a(g1
(lp8
F1.8388038821113
aF1.8278126446076088
aF1.7776526298867399
aF1.5623169434822464
aF1.5532646163496553
aF0.002030594997658672
aF1.547188724397109
aF4.519129049869327e-12
atp9
a(g1
(lp10
F0.0
aF0.0
aF0.0
aF0.0
aF0.0
aF0.0
aF0.0
aF0.0
atp11
a.