(lp0
(VC
p1
(lp2
F2.595919090368238
aF2.549586252527201
aF2.356977406591214
aF1.7414464200091508
aF3.639525796918503
aF0.17225549918543953
aF3.1701003156592202
aF1.9446465602118536e-05
atp3
a(g1
(lp4
F2.8463221785730495
aF2.806809642644577
aF2.6436452083329423
aF2.1280391167992887
aF3.9913163923947423
aF0.17506579851625956
aF3.532071477968582
aF0.00012570283140424346
atp5
a(g1
(lp6
F2.6054325138123993
aF2.56537125048091
aF2.3981037717902773
aF1.844661861239927
aF3.7598519486337265
aF0.11140457735207107
aF3.4688472801097614
aF4.6073142832250345e-05
atp7
a(g1
(lp8
F2.9898007429964757
aF2.9535791485910985
aF2.804549091559947
aF2.3427148578364676
aF3.6129202905555844
aF0.7014287812468845
aF2.4198838080724445
aF0.014146855581149625
atp9
a(g1
(lp10
F0.6669776001287655
aF0.607549746002119
aF0.3947603239055325
aF0.055518513808770736
aF0.2591859379993431
aF0.038705715054978884
aF0.17144741824253182
aF9.835746466772404e-05
atp11
a.