(lp0
(VC
p1
(lp2
F2.1572022205981938
aF2.1120556668477537
aF1.9210820070604853
aF1.3150566758065725
aF2.350205775464603
aF0.24918927482532327
aF1.7497337707705398
aF0.0003583096734537146
atp3
a(g1
(lp4
F2.4816036245952233
aF2.4507404887555477
aF2.314642045945851
aF1.8099316939162982
aF2.647700486312626
aF0.4304149588803447
aF1.7260609219239034
aF0.002769001743256739
atp5
a(g1
(lp6
F2.259091905119995
aF2.2201331723159794
aF2.0529718267346464
aF1.497087405431863
aF2.6250810714017665
aF0.14611038012620606
aF2.3108230063770185
aF0.0006726480571018706
atp7
a(g1
(lp8
F2.5724666437429478
aF2.5447556547313117
aF2.4212347676552035
aF1.936756838877324
aF2.2537371003510804
aF0.9156836919662816
aF1.2505969405307296
aF0.10699806983807626
atp9
a(g1
(lp10
F0.010730662929312242
aF0.009114324131911239
aF0.004272810298012902
aF0.0001274606952856858
aF3.434217408992335e-05
aF6.4789160230548e-06
aF2.044830654549979e-05
aF2.590333061799639e-08
atp11
a.