(lp0
(VC
p1
(lp2
F0.030794037459394394
aF0.02646983786787871
aF0.013119975409254362
aF0.0005096003557934903
aF0.0002977558880944778
aF5.133651405143073e-05
aF0.00018476522850820377
aF1.632616984290623e-07
atp3
a(g1
(lp4
F1.8457764536369916
aF1.8352519729445094
aF1.7872095686689073
aF1.5806943019191881
aF1.5301763847640122
aF0.01403905628692117
aF1.4888203917071499
aF1.0549405562660726e-08
atp5
a(g1
(lp6
F1.8474251225225726
aF1.8353583760072048
aF1.7821263111760406
aF1.5661262080348168
aF1.5394180111136722
aF0.005146522339407123
aF1.524081455463304
aF2.1463866795539607e-10
atp7
a(g1
(lp8
F1.8342343807568593
aF1.8183316411439483
aF1.7505077952401482
aF1.495429057177946
aF1.5340583885395451
aF0.010506144913534191
aF1.5029868528602701
aF5.215974066272142e-08
atp9
a(g1
(lp10
F0.0
aF0.0
aF0.0
aF0.0
aF0.0
aF0.0
aF0.0
aF0.0
atp11
a.