(lp0
(VC
p1
(lp2
F3.4458960576047897
aF3.410436483761167
aF3.251328487548407
aF2.6175414217727084
aF7.4444168972372005
aF0.13301825172042006
aF7.083081345005418
aF2.8341146252343923e-05
atp3
a(g1
(lp4
F3.4272109599293286
aF3.390824509754884
aF3.227837103867969
aF2.5829727582693263
aF7.375632110603718
aF0.1459121310579113
aF6.97999648656717
aF3.619376473514857e-05
atp5
a(g1
(lp6
F3.4365109561401423
aF3.4002047410150076
aF3.2370455125355813
aF2.5832966609261385
aF7.30416495951344
aF0.2280858649668254
aF6.722716660176127
aF0.000199736212318563
atp7
a(g1
(lp8
F3.462215128189271
aF3.4275064718420207
aF3.271444759280867
aF2.6444714740307953
aF7.379859797702208
aF0.2285421898926945
aF6.784972002998741
aF0.00010962435124267891
atp9
a(g1
(lp10
F3.2480105970249893
aF3.201497609562118
aF2.9947115771987747
aF2.205069707584334
aF6.83090413734171
aF0.15557475565319145
aF6.391206785424245
aF5.7549052669490614e-06
atp11
a.