(lp0
(VC
p1
(lp2
F2.1658507418957877
aF2.12084196166725
aF1.9305185803507774
aF1.3259815601730747
aF2.373687995735811
aF0.2445566240479367
aF1.7813686924982728
aF0.00032916861543790974
atp3
a(g1
(lp4
F2.4874926669846573
aF2.4568219195384042
aF2.3214070015928243
aF1.816721604636382
aF2.657915815389676
aF0.43645909646196346
aF1.7288235122621916
aF0.0029917652016692555
atp5
a(g1
(lp6
F2.255638438237139
aF2.2164477458632397
aF2.0482463696152196
aF1.4883492591566911
aF2.626527373323512
aF0.14737231903244208
aF2.306674449870725
aF0.000649599304999434
atp7
a(g1
(lp8
F2.5752435044811897
aF2.5474686871377594
aF2.423931036806194
aF1.9411210360219995
aF2.2768486416746763
aF0.9038138393595447
aF1.271149026745084
aF0.1016375847049477
atp9
a(g1
(lp10
F0.012986123827275485
aF0.0110425671280975
aF0.005203974937716719
aF0.00015898994829598065
aF5.740666942237491e-05
aF1.081519242295933e-05
aF3.4204142046779876e-05
aF4.3088988605957265e-08
atp11
a.