(lp0
(VC
p1
(lp2
F0.0
aF0.0
aF0.0
aF0.0
aF0.0
aF0.0
aF0.0
aF0.0
atp3
a(g1
(lp4
F1.8474530885479081
aF1.8370209647306655
aF1.7893728186478417
aF1.5840328103222394
aF1.5896138361210204
aF6.168343774913143e-05
aF1.5894288001682433
aF3.603701583340016e-18
atp5
a(g1
(lp6
F1.8440691735750177
aF1.8334168978729222
aF1.784777881552393
aF1.5754600615491903
aF1.5894212620218917
aF0.00025425753687786777
aF1.5886587333855833
aF1.040327030704539e-15
atp7
a(g1
(lp8
F1.8588695989772401
aF1.84917128180765
aF1.8048143847128515
aF1.6124671993373072
aF1.580216614608658
aF0.009458904950111181
aF1.5521762570687963
aF1.992681948684689e-09
atp9
a(g1
(lp10
F0.0
aF0.0
aF0.0
aF0.0
aF0.0
aF0.0
aF0.0
aF0.0
atp11
a.