(lp0
(VC
p1
(lp2
F0.0
aF0.0
aF0.0
aF0.0
aF0.0
aF0.0
aF0.0
aF0.0
atp3
a(g1
(lp4
F1.8509802317249644
aF1.840776980625621
aF1.794158206979505
aF1.59293662951177
aF1.6114386518534343
aF0.00141996293319284
aF1.6071862594761996
aF9.689896447935815e-13
atp5
a(g1
(lp6
F1.8715678117227597
aF1.8627000505141034
aF1.8220871551652595
aF1.64488244119355
aF1.595040923839089
aF0.017817690947538104
aF1.5427601984511876
aF2.4022422009255563e-08
atp7
a(g1
(lp8
F1.8552973580631447
aF1.8453778553646036
aF1.8000399663548279
aF1.6040337302326182
aF1.6128210159163883
aF3.75988702389495e-05
aF1.6127082245646058
aF4.763325802525738e-19
atp9
a(g1
(lp10
F0.0
aF0.0
aF0.0
aF0.0
aF0.0
aF0.0
aF0.0
aF0.0
atp11
a.