(lp0
(VC
p1
(lp2
F2.1299983279080132
aF2.0845024178529634
aF1.8920131825864057
aF1.2842882577988943
aF2.274067487823828
aF0.25233304418471203
aF1.6726405329481333
aF0.00043319919659975893
atp3
a(g1
(lp4
F2.459482636409078
aF2.427593163946929
aF2.2872623680067323
aF1.7712362340317285
aF2.6187945204722918
aF0.38802151298054544
aF1.7616061343989735
aF0.0018501254418695399
atp5
a(g1
(lp6
F2.244768435594141
aF2.2053362610639518
aF2.036356031201148
aF1.4767379311298767
aF2.568347578412932
aF0.1447097086803342
aF2.265151304803197
aF0.0007756212956486581
atp7
a(g1
(lp8
F2.561949317883195
aF2.5340898326555346
aF2.4094392913942646
aF1.9183614310159458
aF2.1869518438296067
aF0.9225460369978394
aF1.2355563181275977
aF0.12466457400063784
atp9
a(g1
(lp10
F0.00567784100941221
aF0.004810897625198839
aF0.0022298459028304934
aF6.295992702565798e-05
aF2.530237067712148e-06
aF4.800228744414347e-07
aF1.5025635765206703e-06
aF1.9464163076364827e-09
atp11
a.