(lp0
(VC
p1
(lp2
F1.2651074478098598
aF1.1985624017448147
aF0.9329135464979984
aF0.29306328940579246
aF0.8978884736443351
aF0.11467376529027508
aF0.6260810764742578
aF0.00016671358300602223
atp3
a(g1
(lp4
F2.315413687583595
aF2.283134648164943
aF2.1472041040779297
aF1.719269723972226
aF2.226277709292167
aF0.0720752295881538
aF2.050699530357963
aF9.134557214448304e-05
atp5
a(g1
(lp6
F2.22754302629797
aF2.195050017684233
aF2.0606167841063496
aF1.6585399063502617
aF2.224828816076182
aF0.006203423567635937
aF2.206742059046043
aF2.34838818034636e-08
atp7
a(g1
(lp8
F2.274364331583217
aF2.2419154474614498
aF2.1064521274447854
aF1.6911920621178589
aF2.2378587929984395
aF0.031806731269882794
aF2.1538510350906543
aF1.1670989692125416e-05
atp9
a(g1
(lp10
F0.0
aF0.0
aF0.0
aF0.0
aF0.0
aF0.0
aF0.0
aF0.0
atp11
a.