(lp0
(VC
p1
(lp2
F2.359845589422835
aF2.3136092218257573
aF2.1205385125225535
aF1.5048938820174929
aF2.9331403912365834
aF0.15674359472275773
aF2.5206220495556213
aF6.065528105426021e-05
atp3
a(g1
(lp4
F2.6134054695252074
aF2.584325398590522
aF2.4581354711209293
aF1.9855181357877898
aF3.1053868075791318
aF0.4042495191100435
aF2.258775158485405
aF0.0035942906233672215
atp5
a(g1
(lp6
F2.3302094517790417
aF2.2919728612168524
aF2.126392887844329
aF1.5502840578950592
aF2.9870172268732427
aF0.13201924827512826
aF2.652539156146563
aF0.00011854964486226713
atp7
a(g1
(lp8
F2.7420448321755235
aF2.705392141599479
aF2.5532412533676543
aF2.0507020663577737
aF2.9847828043262354
aF0.5718390044646291
aF2.00702561330011
aF0.015041425803611628
atp9
a(g1
(lp10
F0.2039724561212018
aF0.18097840503833673
aF0.10416853850997088
aF0.008443271676780146
aF0.018979786485811573
aF0.0031787072499124703
aF0.011955644283689362
aF1.0025629908554321e-05
atp11
a.