(lp0
(VC
p1
(lp2
F3.6658748191430797
aF3.643210251508823
aF3.5399218354140327
aF3.0992240663646613
aF8.861202585413999
aF0.20030132870720363
aF8.34002289764344
aF0.00011335758032796497
atp3
a(g1
(lp4
F3.5641715415541233
aF3.5356958464640362
aF3.407193144474511
aF2.8817533667302535
aF8.58647887780976
aF0.13780515864550477
aF8.204145249118461
aF1.4603984766499974e-05
atp5
a(g1
(lp6
F3.6820017672511614
aF3.6603671587201494
aF3.5616904169124037
aF3.139059919420191
aF8.630590596487785
aF0.47270027145284
aF7.781862362922448
aF0.009014755230681298
atp7
a(g1
(lp8
F3.63083648360951
aF3.605933885422979
aF3.4926259422249215
aF3.0127280432544623
aF8.75372432268479
aF0.19041185195858215
aF8.267657188659673
aF0.00016173030217416876
atp9
a(g1
(lp10
F3.5197225310320066
aF3.488464855749612
aF3.347578917079474
aF2.7750068186530346
aF8.392521540579702
aF0.18282484044041764
aF7.884863072376793
aF2.0688892555576963e-05
atp11
a.