(lp0
(VC
p1
(lp2
F0.013328030477568139
aF0.011331464129905065
aF0.0053358684128060885
aF0.0001622743590320958
aF6.420867234378113e-05
aF1.1238133057011404e-05
aF3.9577849595812164e-05
aF3.714104446943217e-08
atp3
a(g1
(lp4
F1.8223620586216351
aF1.8103268772687202
aF1.755501069985224
aF1.5220569289781927
aF1.5078074242637072
aF0.0027828299440681354
aF1.4994896560753628
aF1.739829282424536e-11
atp5
a(g1
(lp6
F1.8261280241247175
aF1.8134182752894126
aF1.756549889084318
aF1.5210457511905537
aF1.5081672635864967
aF0.002498437426679246
aF1.50069715476125
aF1.0238894253872133e-10
atp7
a(g1
(lp8
F1.8199407681524846
aF1.8058277205582547
aF1.7436770760539748
aF1.4941544385954986
aF1.5104123963812595
aF0.00025330463191667967
aF1.5096553702601179
aF2.8612098249094554e-09
atp9
a(g1
(lp10
F0.0
aF0.0
aF0.0
aF0.0
aF0.0
aF0.0
aF0.0
aF0.0
atp11
a.