(lp0
(VC
p1
(lp2
F0.0
aF0.0
aF0.0
aF0.0
aF0.0
aF0.0
aF0.0
aF0.0
atp3
a(g1
(lp4
F1.8394134277001737
aF1.8284602456292287
aF1.7784694691247283
aF1.5637744537819094
aF1.582585695818986
aF0.0008957057230552612
aF1.5799016174713867
aF1.6211473697949643e-13
atp5
a(g1
(lp6
F1.8484205687836086
aF1.8380516394714614
aF1.790688249884131
aF1.5864977037801085
aF1.582395875081339
aF0.0010855264607022347
aF1.5791437586348218
aF3.4972184147647455e-13
atp7
a(g1
(lp8
F1.8552173540090742
aF1.845283618390714
aF1.7998699758019199
aF1.6033350189290652
aF1.5760853032595252
aF0.007396098282516011
aF1.5541036371744879
aF7.536536277768697e-10
atp9
a(g1
(lp10
F0.0
aF0.0
aF0.0
aF0.0
aF0.0
aF0.0
aF0.0
aF0.0
atp11
a.