(lp0
(VC
p1
(lp2
F0.0
aF0.0
aF0.0
aF0.0
aF0.0
aF0.0
aF0.0
aF0.0
atp3
a(g1
(lp4
F1.8194296235562115
aF1.8072115780019908
aF1.7515727298703587
aF1.5150524983221838
aF1.526501024683211
aF3.631812250119153e-05
aF1.5263920754999307
aF4.89070264754685e-19
atp5
a(g1
(lp6
F1.8346434847295146
aF1.8233842981138606
aF1.7720218061012005
aF1.5519264198984717
aF1.517940486125229
aF0.00859685668048288
aF1.4924393116744632
aF1.5354527212677534e-09
atp7
a(g1
(lp8
F1.8205612737270416
aF1.8084154005189965
aF1.7530995275534003
aF1.5178404233929408
aF1.5265368652378506
aF4.775678615111572e-07
aF1.5265354325351626
aF1.462238023710117e-26
atp9
a(g1
(lp10
F0.0
aF0.0
aF0.0
aF0.0
aF0.0
aF0.0
aF0.0
aF0.0
atp11
a.