(lp0
(VC
p1
(lp2
F0.006666694173673293
aF0.00563296034144681
aF0.002576919242608895
aF6.835979050508526e-05
aF1.8189011929895807e-05
aF3.306224061214029e-06
aF1.1020715182969825e-05
aF1.203102075916976e-08
atp3
a(g1
(lp4
F1.824302909779912
aF1.812387105933188
aF1.7580899014122866
aF1.5266047203246456
aF1.529620461721328
aF0.0002959944518699874
aF1.5287328219194407
aF2.1435377421070626e-15
atp5
a(g1
(lp6
F1.8291923841644215
aF1.8169792186326799
aF1.7620106678092458
aF1.531821897607962
aF1.5290029361009732
aF0.0009350153082160917
aF1.5262015920882277
aF1.0985258198767779e-10
atp7
a(g1
(lp8
F1.8317616513333834
aF1.8194694988960651
aF1.7643957392994272
aF1.535328704789246
aF1.5283532305924572
aF0.0015847208167319743
aF1.5236093866115132
aF3.4384997311738676e-10
atp9
a(g1
(lp10
F0.0
aF0.0
aF0.0
aF0.0
aF0.0
aF0.0
aF0.0
aF0.0
atp11
a.