(lp0
(VC
p1
(lp2
F2.389890520391015
aF2.3536594408702785
aF2.1941812555364995
aF1.61012458747037
aF3.254049055934424
aF0.129552315463488
aF2.90499659272913
aF2.362641389818165e-05
atp3
a(g1
(lp4
F2.6065120915166373
aF2.581617783842052
aF2.470201600790489
aF2.030540976616506
aF3.378995975792476
aF0.3281617147354441
aF2.5795942119857154
aF0.00043594976937376726
atp5
a(g1
(lp6
F2.458886558186326
aF2.4263093971808987
aF2.282360469534885
aF1.7454310526147299
aF3.4138216503282246
aF0.08132408764978503
aF3.191181472334298
aF1.0922616808524405e-05
atp7
a(g1
(lp8
F2.6477413231648654
aF2.6247094526445833
aF2.5207786485819708
aF2.0963225455064936
aF3.261775743655459
aF0.5014755274713529
aF2.2496461834793866
aF0.004342090348091064
atp9
a(g1
(lp10
F0.0
aF0.0
aF0.0
aF0.0
aF0.0
aF0.0
aF0.0
aF0.0
atp11
a.