(lp0
(VC
p1
(lp2
F2.079037591945255
aF2.0333524426322045
aF1.8402126168927013
aF1.2399207863774275
aF2.091909380319254
aF0.2602221024778796
aF1.495929856281267
aF0.0008496437618731
atp3
a(g1
(lp4
F2.384823487421809
aF2.349039738347635
aF2.1920854888409895
aF1.6227342442543482
aF2.5048586400876545
aF0.28339548693092986
aF1.8322921692559613
aF0.0005045011942243084
atp5
a(g1
(lp6
F2.168529474857527
aF2.1256364963073313
aF1.9421968649378587
aF1.338867804796772
aF2.3489234211578585
aF0.15080672940954734
aF2.0539356059032126
aF0.0012365899325552559
atp7
a(g1
(lp8
F2.536245912263122
aF2.5071525310170277
aF2.377287521671788
aF1.87170775202971
aF1.961360373691626
aF0.9607961028081767
aF1.1938268323284724
aF0.19647808868711295
atp9
a(g1
(lp10
F1.712353898678406e-05
aF1.4287096417586208e-05
aF6.164318878311805e-06
aF1.2457528226430322e-07
aF0.0
aF0.0
aF0.0
aF0.0
atp11
a.