(lp0
(VC
p1
(lp2
F2.3332740098188065
aF2.2901093484843256
aF2.109465878563546
aF1.5321664052073958
aF2.8143617421223746
aF0.25318846973594467
aF2.1778804722005307
aF0.0001788797721943431
atp3
a(g1
(lp4
F2.6306843439563785
aF2.6065114405199683
aF2.4981496648628916
aF2.064005555274362
aF2.99647934652326
aF0.5563544032779587
aF1.9628789554712447
aF0.010910287033312024
atp5
a(g1
(lp6
F2.2437033783578033
aF2.2025589645311525
aF2.0247204415635696
aF1.4161891944722935
aF2.7445302560375113
aF0.24226638575366227
aF2.1584683309272696
aF0.0004686660309930266
atp7
a(g1
(lp8
F2.7048259230670744
aF2.6769053984525506
aF2.558867766377835
aF2.139955256935216
aF2.737086116173205
aF0.8436637454382967
aF1.693157986309069
aF0.06741541989271996
atp9
a(g1
(lp10
F0.087581793620571
aF0.07640587410631253
aF0.040558394878202175
aF0.002156626412620285
aF0.003295955702870373
aF0.0005894362799514118
aF0.0020129896828023873
aF2.0915970187197506e-06
atp11
a.