(lp0
(VC
p1
(lp2
F1.7997178799376372
aF1.7416280061941505
aF1.4977474699640339
aF0.7669524978542827
aF1.760478680222315
aF0.21083729292988826
aF1.2593020233943084
aF0.00033800419561626444
atp3
a(g1
(lp4
F2.5724015657420027
aF2.545800171121389
aF2.427230261312673
aF1.9672075321741098
aF2.4315665834012528
aF0.5326806935521665
aF1.7140144798175894
aF0.03009005187146473
atp5
a(g1
(lp6
F2.306795225772319
aF2.2718388954629383
aF2.1227176304964575
aF1.6315702992424137
aF2.6473814329912164
aF0.05604857991361042
aF2.5009487323342876
aF2.0540617900988666e-05
atp7
a(g1
(lp8
F2.3664283411412814
aF2.3324939132350555
aF2.1860921827537823
aF1.6849990400667991
aF2.7307448166254424
aF0.05255956382702834
aF2.5883901249200125
aF9.778267202616919e-06
atp9
a(g1
(lp10
F0.0
aF0.0
aF0.0
aF0.0
aF0.0
aF0.0
aF0.0
aF0.0
atp11
a.