(lp0
(VC
p1
(lp2
F2.1978683124905474
aF2.153337283877258
aF1.9654614325575404
aF1.3677867559548968
aF2.4601245881036213
aF0.22276021010332533
aF1.9091475364862946
aF0.00022731489542553773
atp3
a(g1
(lp4
F2.509579963508826
aF2.479560875510047
aF2.346310814225752
aF1.8386767626702185
aF2.707982356724962
aF0.4419367762087011
aF1.7809214108344062
aF0.0036751064864689645
atp5
a(g1
(lp6
F2.228528093906478
aF2.1878076101166357
aF2.0129325171894763
aF1.4293700278782084
aF2.602431337783919
aF0.15598455221644175
aF2.2510996624000854
aF0.0005761920654020685
atp7
a(g1
(lp8
F2.588484400684002
aF2.560252529048461
aF2.4360305751036435
aF1.959755993089554
aF2.3735969866142694
aF0.8425985242003333
aF1.3858121137459556
aF0.08347853301581083
atp9
a(g1
(lp10
F0.024503351624623984
aF0.0209537279193902
aF0.010134987015468097
aF0.0003484952839453176
aF0.00024675001301899886
aF4.6079274849305415e-05
aF0.00014763359762213303
aF1.7954735423965982e-07
atp11
a.