(lp0
(VC
p1
(lp2
F0.06340201202992171
aF0.055045439773366574
aF0.02857155022034894
aF0.0013696539024003593
aF0.001576254265542671
aF0.0002753310141846103
aF0.0009724649136610188
aF9.052934531167125e-07
atp3
a(g1
(lp4
F1.8442991335146908
aF1.833660454656477
aF1.7850808898362955
aF1.575968570402639
aF1.5596281308262316
aF0.003775874653285966
aF1.548355134924858
aF5.319326081411742e-11
atp5
a(g1
(lp6
F1.8564713362560026
aF1.841842302870273
aF1.7798015327272112
aF1.547708791355754
aF1.564899653134935
aF0.0003559376243096494
aF1.5638382333706875
aF5.606907564453255e-10
atp7
a(g1
(lp8
F1.8816852435701537
aF1.8657931735125262
aF1.8002252109993315
aF1.5712613780372364
aF1.5630805403359518
aF0.0021750504232930542
aF1.5566643187462472
aF1.492759567653404e-07
atp9
a(g1
(lp10
F0.0
aF0.0
aF0.0
aF0.0
aF0.0
aF0.0
aF0.0
aF0.0
atp11
a.