(lp0
(VC
p1
(lp2
F2.101425348646705
aF2.055601858807159
aF1.860894338655207
aF1.2450555077628065
aF2.1665344043549055
aF0.32825611004349
aF1.4262904181158185
aF0.0009225348731186269
atp3
a(g1
(lp4
F2.42771206590883
aF2.3951003637883588
aF2.2526690620201997
aF1.7437399489301681
aF2.5889628093848636
aF0.38052164950750544
aF1.7335670862751837
aF0.0012369142540756741
atp5
a(g1
(lp6
F2.285140681810449
aF2.247074002306662
aF2.0832892148691897
aF1.5324644590359475
aF2.6477954885208064
aF0.13382676415657377
aF2.3591898943353016
aF0.0005335680121468629
atp7
a(g1
(lp8
F2.580320824946095
aF2.5534448483317425
aF2.4328430448045983
aF1.9524866903138332
aF1.981862849115652
aF1.1480519056387528
aF1.1331627671343105
aF0.23610956961567595
atp9
a(g1
(lp10
F0.0
aF0.0
aF0.0
aF0.0
aF0.0
aF0.0
aF0.0
aF0.0
atp11
a.