(lp0
(VC
p1
(lp2
F0.00016007394308672161
aF0.00013382730947743057
aF5.8282881546824554e-05
aF1.2300142054288846e-06
aF0.0
aF0.0
aF0.0
aF0.0
atp3
a(g1
(lp4
F1.8538711935280157
aF1.8438575341507528
aF1.7980940636315375
aF1.6003445042416826
aF1.6147656314220304
aF0.0006030762008857648
aF1.6129577533855521
aF3.138150475665546e-14
atp5
a(g1
(lp6
F1.8541423850875085
aF1.8441097904312607
aF1.7983037905239565
aF1.6006318076711903
aF1.614805001474798
aF0.0005637061481179328
aF1.6131150630361013
aF2.3954995258242318e-14
atp7
a(g1
(lp8
F1.8729411100553306
aF1.8641631713258315
aF1.8239551750679293
aF1.6483879018699228
aF1.5963218178120524
aF0.019046889810864016
aF1.5405180840780488
aF3.122347820053429e-08
atp9
a(g1
(lp10
F0.0
aF0.0
aF0.0
aF0.0
aF0.0
aF0.0
aF0.0
aF0.0
atp11
a.