(lp0
(VC
p1
(lp2
F3.6371991400599817
aF3.6127542874851315
aF3.501558409198248
aF3.031053500055589
aF8.668400428873658
aF0.1850903615387191
aF8.17462582776817
aF5.464940765402855e-05
atp3
a(g1
(lp4
F3.5424771723040367
aF3.5127280586842944
aF3.378649615450902
aF2.8334784352592557
aF8.41409886749072
aF0.1295506076597453
aF8.050642173982723
aF7.722086674257833e-06
atp5
a(g1
(lp6
F3.6506598094572453
aF3.627052305766659
aF3.51957780409483
aF3.063140038217946
aF8.453453825042189
aF0.4308049272976929
aF7.633244766491761
aF0.006052331470469512
atp7
a(g1
(lp8
F3.606885044536229
aF3.580517134994818
aF3.4607295229275383
aF2.9569547421669924
aF8.559701441729066
aF0.19167671535452946
aF8.06262368520976
aF0.00012682721228996318
atp9
a(g1
(lp10
F3.48334631066456
aF3.449938593819527
aF3.2996277265143927
aF2.693632912086777
aF8.171201606858798
aF0.1772855807647203
aF7.675502648009709
aF1.539942323636495e-05
atp11
a.