(lp0
(VC
p1
(lp2
F2.139096998145873
aF2.0937031641349275
aF1.9016347217452307
aF1.294023770107361
aF2.3000014288465533
aF0.2528938732808388
aF1.6953475772520061
aF0.00040876460542322326
atp3
a(g1
(lp4
F2.4676002995885846
aF2.4361268966672336
aF2.2975647018222736
aF1.7871249962143865
aF2.6287193770692556
aF0.40524401793441855
aF1.744228747194901
aF0.002170439224055293
atp5
a(g1
(lp6
F2.2532816303202776
aF2.214186275910647
aF2.046570623248825
aF1.490646670870055
aF2.5950151986187207
aF0.14484238468914704
aF2.2889130414015906
aF0.0007354479018612384
atp7
a(g1
(lp8
F2.565775496350306
aF2.538023483136785
aF2.4139461128962267
aF1.9253140553727295
aF2.2089846236670794
aF0.9244358543484372
aF1.2340108164465062
aF0.11851363892674005
atp9
a(g1
(lp10
F0.007066262487065126
aF0.005991395233506455
aF0.0027859855771641424
aF7.996819142892843e-05
aF8.183631650793918e-06
aF1.5490135322137855e-06
aF4.865098312379048e-06
aF6.244938625598345e-09
atp11
a.