(lp0
(VC
p1
(lp2
F0.03451974135801633
aF0.02971815842808813
aF0.014836214825222063
aF0.0005961063420733997
aF0.00038242017793970275
aF6.594952026626761e-05
aF0.00023727633953579864
aF2.098639292517368e-07
atp3
a(g1
(lp4
F1.8479240019149417
aF1.8375354727946482
aF1.7901001867048179
aF1.5859320622394877
aF1.5344649714223533
aF0.014749203597530625
aF1.4910545395744352
aF1.2727405949789898e-08
atp5
a(g1
(lp6
F1.8497617273649265
aF1.837591944486114
aF1.784135883833056
aF1.5688257511801886
aF1.5452791034738915
aF0.00438344124419808
aF1.5322034738874362
aF1.2587061363440274e-10
atp7
a(g1
(lp8
F1.839461871978799
aF1.823425980264303
aF1.7553688430863201
aF1.502082323692373
aF1.5396927737070614
aF0.009969771011028418
aF1.510193446633936
aF6.933807141955612e-08
atp9
a(g1
(lp10
F0.0
aF0.0
aF0.0
aF0.0
aF0.0
aF0.0
aF0.0
aF0.0
atp11
a.