(lp0
(VC
p1
(lp2
F0.0
aF0.0
aF0.0
aF0.0
aF0.0
aF0.0
aF0.0
aF0.0
atp3
a(g1
(lp4
F1.8174106848589093
aF1.805070675234816
aF1.7488946452785212
aF1.5104370017091335
aF1.518811305625177
aF1.2215389238694141e-08
aF1.5188112689790096
aF6.355032360865276e-33
atp5
a(g1
(lp6
F1.8337861689318178
aF1.8224725809950666
aF1.7708669949051048
aF1.5498290977781513
aF1.5075091980632984
aF0.011302119777267817
aF1.4741049632055208
aF4.657234949797534e-09
atp7
a(g1
(lp8
F1.8141102302354888
aF1.8015598806451498
aF1.7444427617475746
aF1.5023140866363005
aF1.5184471569762856
aF0.0003641608642805597
aF1.5173551981823012
aF5.019513310550213e-15
atp9
a(g1
(lp10
F0.0
aF0.0
aF0.0
aF0.0
aF0.0
aF0.0
aF0.0
aF0.0
atp11
a.