(lp0
(VC
p1
(lp2
F2.898468170996054
aF2.8442537934630234
aF2.6138174987165255
aF1.866700893505848
aF4.668099222869445
aF0.1624021530972882
aF4.2230126038557305
aF2.7176824752088183e-05
atp3
a(g1
(lp4
F3.378959147662427
aF3.3404546892473506
aF3.169008347057845
aF2.507434144708559
aF4.658775152846566
aF1.1128554832861908
aF2.9821800502462903
aF0.05055227979949979
atp5
a(g1
(lp6
F2.8068726790453193
aF2.745261840726127
aF2.4819647810386574
aF1.6228871773041673
aF4.401216971740759
aF0.23601557780570429
aF3.8012069969868088
aF0.00017561767420657136
atp7
a(g1
(lp8
F3.2276503458273167
aF3.1829873661737427
aF2.9875008296929577
aF2.286024280563289
aF4.890561619541807
aF0.5969548200918087
aF3.8185266961882527
aF0.028754302587769
atp9
a(g1
(lp10
F2.29022391924282
aF2.211620832168143
aF1.8845352506493902
aF0.9344836592325168
aF3.081066867860022
aF0.2748154803703847
aF2.4192965152234223
aF0.0004706685867485246
atp11
a.