(lp0
(VC
p1
(lp2
F2.3714484276895167
aF2.3341095828040377
aF2.1697146338422812
aF1.5667443628967475
aF3.1913598670726797
aF0.2485416675134529
aF2.5815286095389656
aF0.00036517709474774573
atp3
a(g1
(lp4
F2.7496076410401358
aF2.7326110369361705
aF2.6551392071471014
aF2.3243454555558536
aF3.100789332191345
aF0.8918284055051893
aF1.9253056618155797
aF0.07707647207801573
atp5
a(g1
(lp6
F2.4959747314574776
aF2.4656600932350474
aF2.3316393461303635
aF1.829120047117958
aF3.4981476695442657
aF0.14606518088755094
aF3.147059385390886
aF0.00021063583531805133
atp7
a(g1
(lp8
F2.594626273251671
aF2.5687646859879143
aF2.452807517945601
aF1.9922041424292596
aF3.7066965324567027
aF0.09730202148835143
aF3.443697637449709
aF2.0756423278981194e-05
atp9
a(g1
(lp10
F0.0
aF0.0
aF0.0
aF0.0
aF0.0
aF0.0
aF0.0
aF0.0
atp11
a.